	.file	"ee_oo_api_osek.c"
__SP_H__ = 0x3e
__SP_L__ = 0x3d
__SREG__ = 0x3f
__tmp_reg__ = 0
__zero_reg__ = 1
	.text
.Ltext0:
	.cfi_sections	.debug_frame
	.section	.text.osEE_check_disableint,"ax",@progbits
	.type	osEE_check_disableint, @function
osEE_check_disableint:
.LFB46:
	.file 1 "/home/user/Osek/OSEK-4/erika/src/ee_kernel.h"
	.loc 1 263 0
	.cfi_startproc
.LVL0:
/* prologue: function */
/* frame size = 0 */
/* stack size = 0 */
.L__stack_usage = 0
	movw r30,r24
	.loc 1 264 0
	ldd r24,Z+25
.LVL1:
	cpse r24,__zero_reg__
	rjmp .L5
	.loc 1 264 0 is_stmt 0 discriminator 2
	ldd r24,Z+26
	cpse r24,__zero_reg__
	rjmp .L5
	.loc 1 264 0 discriminator 4
	ldi r18,lo8(1)
	ldi r25,0
	ldd r24,Z+27
	cpse r24,__zero_reg__
	rjmp .L3
	ldi r18,0
.L3:
	mov r24,r18
	ret
.L5:
	.loc 1 264 0
	ldi r24,lo8(1)
	ldi r25,0
/* epilogue start */
	.loc 1 266 0 is_stmt 1
	ret
	.cfi_endproc
.LFE46:
	.size	osEE_check_disableint, .-osEE_check_disableint
	.section	.text.osEE_call_error_hook,"ax",@progbits
	.type	osEE_call_error_hook, @function
osEE_call_error_hook:
.LFB51:
	.loc 1 367 0
	.cfi_startproc
.LVL2:
	push r16
.LCFI0:
	.cfi_def_cfa_offset 3
	.cfi_offset 16, -2
	push r17
.LCFI1:
	.cfi_def_cfa_offset 4
	.cfi_offset 17, -3
	push r28
.LCFI2:
	.cfi_def_cfa_offset 5
	.cfi_offset 28, -4
	push r29
.LCFI3:
	.cfi_def_cfa_offset 6
	.cfi_offset 29, -5
/* prologue: function */
/* frame size = 0 */
/* stack size = 4 */
.L__stack_usage = 4
	movw r28,r24
	.loc 1 369 0
	ldd r16,Y+21
	ldd r17,Y+22
.LVL3:
	.loc 1 370 0
	cpi r16,3
	cpc r17,__zero_reg__
	breq .L6
	movw r24,r22
.LVL4:
	.loc 1 371 0
	ldi r18,lo8(3)
	ldi r19,0
	std Y+22,r19
	std Y+21,r18
	.loc 1 372 0
	std Y+12,r23
	std Y+11,r22
	.loc 1 373 0
	call ErrorHook
.LVL5:
	.loc 1 374 0
	std Y+22,r17
	std Y+21,r16
.L6:
/* epilogue start */
	.loc 1 380 0
	pop r29
	pop r28
.LVL6:
	pop r17
	pop r16
.LVL7:
	ret
	.cfi_endproc
.LFE51:
	.size	osEE_call_error_hook, .-osEE_call_error_hook
	.section	.text.DisableAllInterrupts,"ax",@progbits
.global	DisableAllInterrupts
	.type	DisableAllInterrupts, @function
DisableAllInterrupts:
.LFB61:
	.file 2 "/home/user/Osek/OSEK-4/erika/src/ee_oo_api_osek.c"
	.loc 2 67 0
	.cfi_startproc
/* prologue: function */
/* frame size = 0 */
/* stack size = 0 */
.L__stack_usage = 0
	.loc 2 69 0
	lds r30,CDB
	lds r31,CDB+1
.LBB802:
.LBB803:
	.file 3 "/home/user/Osek/OSEK-4/erika/src/ee_hal_internal.h"
	.loc 3 100 0
/* #APP */
 ;  100 "/home/user/Osek/OSEK-4/erika/src/ee_hal_internal.h" 1
	cli
 ;  0 "" 2
.LVL8:
/* #NOAPP */
.LBE803:
.LBE802:
	.loc 2 73 0
	ldi r24,lo8(1)
	std Z+27,r24
.LVL9:
/* epilogue start */
	.loc 2 76 0
	ret
	.cfi_endproc
.LFE61:
	.size	DisableAllInterrupts, .-DisableAllInterrupts
	.section	.text.EnableAllInterrupts,"ax",@progbits
.global	EnableAllInterrupts
	.type	EnableAllInterrupts, @function
EnableAllInterrupts:
.LFB62:
	.loc 2 83 0
	.cfi_startproc
/* prologue: function */
/* frame size = 0 */
/* stack size = 0 */
.L__stack_usage = 0
	.loc 2 90 0
	lds r30,CDB
	lds r31,CDB+1
.LVL10:
	.loc 2 94 0
	ldd r24,Z+27
	tst r24
	breq .L12
	.loc 2 95 0
	std Z+27,__zero_reg__
.LBB804:
.LBB805:
	.loc 3 105 0
/* #APP */
 ;  105 "/home/user/Osek/OSEK-4/erika/src/ee_hal_internal.h" 1
	sei
 ;  0 "" 2
.LVL11:
/* #NOAPP */
.L12:
/* epilogue start */
.LBE805:
.LBE804:
	.loc 2 102 0
	ret
	.cfi_endproc
.LFE62:
	.size	EnableAllInterrupts, .-EnableAllInterrupts
	.section	.text.SuspendAllInterrupts,"ax",@progbits
.global	SuspendAllInterrupts
	.type	SuspendAllInterrupts, @function
SuspendAllInterrupts:
.LFB63:
	.loc 2 109 0
	.cfi_startproc
/* prologue: function */
/* frame size = 0 */
/* stack size = 0 */
.L__stack_usage = 0
	.loc 2 111 0
	lds r30,CDB
	lds r31,CDB+1
.LVL12:
	.loc 2 115 0
	ldd r24,Z+25
	cpse r24,__zero_reg__
	rjmp .L18
.LBB806:
.LBB807:
.LBB808:
	.loc 3 111 0
	in r24,__SREG__
.LVL13:
.LBB809:
.LBB810:
	.loc 3 100 0
/* #APP */
 ;  100 "/home/user/Osek/OSEK-4/erika/src/ee_hal_internal.h" 1
	cli
 ;  0 "" 2
.LVL14:
/* #NOAPP */
.LBE810:
.LBE809:
.LBE808:
.LBE807:
	.loc 2 117 0
	std Z+23,r24
	.loc 2 118 0
	ldd r24,Z+25
.L23:
.LBE806:
	.loc 2 120 0
	subi r24,lo8(-(1))
	std Z+25,r24
.LVL15:
	.loc 2 125 0
	rjmp .L17
.LVL16:
.L18:
	.loc 2 119 0
	cpi r24,lo8(-1)
	brne .L23
.L17:
/* epilogue start */
	.loc 2 126 0
	ret
	.cfi_endproc
.LFE63:
	.size	SuspendAllInterrupts, .-SuspendAllInterrupts
	.section	.text.ResumeAllInterrupts,"ax",@progbits
.global	ResumeAllInterrupts
	.type	ResumeAllInterrupts, @function
ResumeAllInterrupts:
.LFB64:
	.loc 2 133 0
	.cfi_startproc
/* prologue: function */
/* frame size = 0 */
/* stack size = 0 */
.L__stack_usage = 0
	.loc 2 135 0
	lds r30,CDB
	lds r31,CDB+1
.LVL17:
	.loc 2 139 0
	ldd r24,Z+25
	tst r24
	breq .L24
	.loc 2 140 0
	subi r24,lo8(-(-1))
	std Z+25,r24
	cpse r24,__zero_reg__
	rjmp .L24
	.loc 2 141 0
	ldd r24,Z+23
.LVL18:
.LBB811:
.LBB812:
	.loc 3 118 0
	.loc 3 119 0
	out __SREG__,r24
.LVL19:
.L24:
/* epilogue start */
.LBE812:
.LBE811:
	.loc 2 148 0
	ret
	.cfi_endproc
.LFE64:
	.size	ResumeAllInterrupts, .-ResumeAllInterrupts
	.section	.text.SuspendOSInterrupts,"ax",@progbits
.global	SuspendOSInterrupts
	.type	SuspendOSInterrupts, @function
SuspendOSInterrupts:
.LFB65:
	.loc 2 155 0
	.cfi_startproc
/* prologue: function */
/* frame size = 0 */
/* stack size = 0 */
.L__stack_usage = 0
	.loc 2 157 0
	lds r30,CDB
	lds r31,CDB+1
.LVL20:
	.loc 2 161 0
	ldd r24,Z+26
	cpse r24,__zero_reg__
	rjmp .L29
.LBB813:
.LBB814:
.LBB815:
.LBB816:
	.loc 3 111 0
	in r24,__SREG__
.LVL21:
.LBB817:
.LBB818:
	.loc 3 100 0
/* #APP */
 ;  100 "/home/user/Osek/OSEK-4/erika/src/ee_hal_internal.h" 1
	cli
 ;  0 "" 2
.LVL22:
/* #NOAPP */
.LBE818:
.LBE817:
.LBE816:
.LBE815:
.LBE814:
	.loc 2 163 0
	std Z+24,r24
	.loc 2 164 0
	ldd r24,Z+26
.L34:
.LBE813:
	.loc 2 166 0
	subi r24,lo8(-(1))
	std Z+26,r24
.LVL23:
	.loc 2 171 0
	rjmp .L28
.LVL24:
.L29:
	.loc 2 165 0
	cpi r24,lo8(-1)
	brne .L34
.L28:
/* epilogue start */
	.loc 2 172 0
	ret
	.cfi_endproc
.LFE65:
	.size	SuspendOSInterrupts, .-SuspendOSInterrupts
	.section	.text.ResumeOSInterrupts,"ax",@progbits
.global	ResumeOSInterrupts
	.type	ResumeOSInterrupts, @function
ResumeOSInterrupts:
.LFB66:
	.loc 2 179 0
	.cfi_startproc
/* prologue: function */
/* frame size = 0 */
/* stack size = 0 */
.L__stack_usage = 0
	.loc 2 181 0
	lds r30,CDB
	lds r31,CDB+1
.LVL25:
	.loc 2 185 0
	ldd r24,Z+26
	tst r24
	breq .L35
	.loc 2 186 0
	subi r24,lo8(-(-1))
	std Z+26,r24
	cpse r24,__zero_reg__
	rjmp .L35
	.loc 2 187 0
	ldd r24,Z+24
.LVL26:
.LBB819:
.LBB820:
.LBB821:
	.loc 3 118 0
	.loc 3 119 0
	out __SREG__,r24
.LVL27:
.L35:
/* epilogue start */
.LBE821:
.LBE820:
.LBE819:
	.loc 2 194 0
	ret
	.cfi_endproc
.LFE66:
	.size	ResumeOSInterrupts, .-ResumeOSInterrupts
	.section	.text.StartOS,"ax",@progbits
.global	StartOS
	.type	StartOS, @function
StartOS:
.LFB67:
	.loc 2 201 0
	.cfi_startproc
.LVL28:
	push r4
.LCFI4:
	.cfi_def_cfa_offset 3
	.cfi_offset 4, -2
	push r5
.LCFI5:
	.cfi_def_cfa_offset 4
	.cfi_offset 5, -3
	push r6
.LCFI6:
	.cfi_def_cfa_offset 5
	.cfi_offset 6, -4
	push r7
.LCFI7:
	.cfi_def_cfa_offset 6
	.cfi_offset 7, -5
	push r8
.LCFI8:
	.cfi_def_cfa_offset 7
	.cfi_offset 8, -6
	push r9
.LCFI9:
	.cfi_def_cfa_offset 8
	.cfi_offset 9, -7
	push r10
.LCFI10:
	.cfi_def_cfa_offset 9
	.cfi_offset 10, -8
	push r11
.LCFI11:
	.cfi_def_cfa_offset 10
	.cfi_offset 11, -9
	push r12
.LCFI12:
	.cfi_def_cfa_offset 11
	.cfi_offset 12, -10
	push r13
.LCFI13:
	.cfi_def_cfa_offset 12
	.cfi_offset 13, -11
	push r14
.LCFI14:
	.cfi_def_cfa_offset 13
	.cfi_offset 14, -12
	push r15
.LCFI15:
	.cfi_def_cfa_offset 14
	.cfi_offset 15, -13
	push r16
.LCFI16:
	.cfi_def_cfa_offset 15
	.cfi_offset 16, -14
	push r17
.LCFI17:
	.cfi_def_cfa_offset 16
	.cfi_offset 17, -15
	push r28
.LCFI18:
	.cfi_def_cfa_offset 17
	.cfi_offset 28, -16
	push r29
.LCFI19:
	.cfi_def_cfa_offset 18
	.cfi_offset 29, -17
	rcall .
.LCFI20:
	.cfi_def_cfa_offset 20
	in r28,__SP_L__
	in r29,__SP_H__
.LCFI21:
	.cfi_def_cfa_register 28
/* prologue: function */
/* frame size = 2 */
/* stack size = 18 */
.L__stack_usage = 18
	mov r8,r24
	.loc 2 204 0
	lds r16,CDB
	lds r17,CDB+1
.LVL29:
.LBB849:
.LBB850:
.LBB851:
.LBB852:
	.loc 3 111 0
	in r15,__SREG__
.LVL30:
.LBB853:
.LBB854:
	.loc 3 100 0
/* #APP */
 ;  100 "/home/user/Osek/OSEK-4/erika/src/ee_hal_internal.h" 1
	cli
 ;  0 "" 2
.LVL31:
/* #NOAPP */
.LBE854:
.LBE853:
.LBE852:
.LBE851:
.LBE850:
.LBE849:
	.loc 2 211 0
	movw r26,r16
	adiw r26,8
	ld r24,X+
	ld r25,X
	sbiw r26,8+1
.LVL32:
	or r24,r25
	breq .+2
	rjmp .L40
.LBB855:
.LBB856:
	.loc 3 168 0
	ldi r24,lo8(gs(osEE_atmega_intvect))
	ldi r25,hi8(gs(osEE_atmega_intvect))
	std Y+2,r25
	std Y+1,r24
	.loc 3 172 0
	call osEE_avr8_system_timer_init
.LVL33:
.LBE856:
.LBE855:
.LBB857:
	.loc 2 215 0
	lds r10,CDB+4
	lds r11,CDB+4+1
.LVL34:
	.loc 2 235 0
	ldi r24,lo8(1)
	ldi r25,0
	movw r30,r16
	std Z+9,r25
	std Z+8,r24
	.loc 2 236 0
	std Z+10,r8
.LVL35:
.LBB858:
.LBB859:
	.loc 1 277 0
	ldd r14,Z+21
	ldd r15,Z+22
.LVL36:
	.loc 1 278 0
	ldi r24,lo8(7)
	ldi r25,0
	std Z+22,r25
	std Z+21,r24
	.loc 1 283 0
	call StartupHook
.LVL37:
	.loc 1 285 0
	movw r26,r16
	adiw r26,21+1
	st X,r15
	st -X,r14
	sbiw r26,21
.LVL38:
.LBE859:
.LBE858:
.LBB860:
	.loc 2 244 0
	lds r14,CDB+12
	lds r15,CDB+12+1
.LVL39:
	.loc 2 248 0
	mov r13,__zero_reg__
	mov r12,__zero_reg__
	ldi r27,lo8(4)
	mul r8,r27
	movw r8,r0
	clr __zero_reg__
.LVL40:
	add r14,r8
	adc r15,r9
	movw r6,r14
	ldi r30,2
	add r6,r30
	adc r7,__zero_reg__
.LBB861:
	.loc 2 252 0
	ldi r20,lo8(6)
	mov r5,r20
.LVL41:
.L41:
.LBE861:
	.loc 2 248 0 discriminator 1
	movw r30,r6
	ld r24,Z
	ldd r25,Z+1
	cp r12,r24
	cpc r13,r25
	brlo .L42
.LVL42:
.LBE860:
.LBB863:
	.loc 2 271 0
	lds r14,CDB+8
	lds r15,CDB+8+1
.LVL43:
	.loc 2 274 0
	movw r6,r16
	ldi r31,2
	add r6,r31
	adc r7,__zero_reg__
.LVL44:
	.loc 2 288 0
	mov r13,__zero_reg__
	mov r12,__zero_reg__
.LVL45:
	add r14,r8
	adc r15,r9
	movw r4,r14
	ldi r24,2
	add r4,r24
	adc r5,__zero_reg__
.LBB864:
	.loc 2 296 0
	clr r8
	inc r8
	mov r9,__zero_reg__
.LVL46:
.L43:
.LBE864:
	.loc 2 288 0 discriminator 1
	movw r30,r4
	ld r24,Z
	ldd r25,Z+1
	cp r12,r24
	cpc r13,r25
	brlo .L44
.LVL47:
.LBE863:
	.loc 2 311 0
	movw r26,r16
	adiw r26,8
	ld r24,X+
	ld r25,X
	sbiw r26,8+1
	sbiw r24,1
	brne .L45
	.loc 2 312 0
	ldi r24,lo8(2)
	ldi r25,0
	adiw r26,8+1
	st X,r25
	st -X,r24
	sbiw r26,8
.L45:
.LVL48:
	.loc 2 320 0
	movw r30,r16
	ldd r24,Z+8
	ldd r25,Z+9
	sbiw r24,2
	brne .L46
.LVL49:
.LBB868:
.LBB869:
	.file 4 "/home/user/Osek/OSEK-4/erika/src/ee_std_change_context.h"
	.loc 4 145 0
	movw r26,r10
	adiw r26,2
	ld r22,X+
	ld r23,X
	movw r20,r22
	movw r24,r10
	call osEE_hal_save_ctx_and_ready2stacked
.LVL50:
.L46:
.LBE869:
.LBE868:
	.loc 2 345 0
	movw r30,r16
	ldd r24,Z+8
	ldd r25,Z+9
	sbiw r24,2
	brne .L48
.LVL51:
.LBB870:
.LBB871:
	.loc 3 105 0
/* #APP */
 ;  105 "/home/user/Osek/OSEK-4/erika/src/ee_hal_internal.h" 1
	sei
 ;  0 "" 2
.LVL52:
/* #NOAPP */
.L48:
.LBE871:
.LBE870:
	.loc 2 343 0
	ldi r25,0
	ldi r24,0
.LBE857:
	.loc 2 369 0
	rjmp .L39
.LVL53:
.L42:
.LBB874:
.LBB872:
.LBB862:
	.loc 2 250 0 discriminator 3
	movw r26,r14
	ld r30,X+
	ld r31,X
.LVL54:
	.loc 2 252 0 discriminator 3
	mul r5,r12
	movw r24,r0
	mul r5,r13
	add r25,r0
	clr __zero_reg__
	add r30,r24
	adc r31,r25
.LVL55:
	ld r26,Z
	ldd r27,Z+1
.LVL56:
	.loc 2 255 0 discriminator 3
	ldd r18,Z+4
	ldd r19,Z+5
	ldd r20,Z+2
	ldd r21,Z+3
	movw r22,r26
	adiw r26,2
	ld r24,X+
	ld r25,X
	call osEE_alarm_set_rel
.LVL57:
.LBE862:
	.loc 2 248 0 discriminator 3
	ldi r27,-1
	sub r12,r27
	sbc r13,r27
.LVL58:
	rjmp .L41
.LVL59:
.L44:
.LBE872:
.LBB873:
.LBB867:
	.loc 2 290 0 discriminator 3
	movw r26,r14
	ld r30,X+
	ld r31,X
	movw r24,r12
	lsl r24
	rol r25
	add r30,r24
	adc r31,r25
	ld r20,Z
	ldd r21,Z+1
.LVL60:
	.loc 2 292 0 discriminator 3
	movw r26,r20
	adiw r26,4
	ld r30,X+
	ld r31,X
.LVL61:
	.loc 2 295 0 discriminator 3
	ld r24,Z
	subi r24,lo8(-(1))
	st Z,r24
	.loc 2 296 0 discriminator 3
	std Z+3,r9
	std Z+2,r8
.LVL62:
.LBB865:
.LBB866:
	.file 5 "/home/user/Osek/OSEK-4/erika/inc/ee_scheduler_types.h"
	.loc 5 82 0 discriminator 3
	movw r30,r16
.LVL63:
	ldd r22,Z+4
	ldd r23,Z+5
.LVL64:
	.loc 5 83 0 discriminator 3
	movw r26,r22
	ld r24,X+
	ld r25,X
	sbiw r26,1
	std Z+5,r25
	std Z+4,r24
	.loc 5 84 0 discriminator 3
	st X+,__zero_reg__
	st X,__zero_reg__
.LVL65:
.LBE866:
.LBE865:
	.loc 2 298 0 discriminator 3
	movw r24,r6
	call osEE_scheduler_rq_insert
.LVL66:
.LBE867:
	.loc 2 288 0 discriminator 3
	ldi r27,-1
	sub r12,r27
	sbc r13,r27
.LVL67:
	rjmp .L43
.LVL68:
.L40:
.LBE873:
.LBE874:
.LBB875:
.LBB876:
	.loc 1 390 0
	ldi r24,lo8(56)
	ldi r25,0
	adiw r26,13+1
	st X,r25
	st -X,r24
	sbiw r26,13
.LVL69:
.LBE876:
.LBE875:
	.loc 2 364 0
	ldi r22,lo8(1)
	ldi r23,0
	movw r24,r16
	call osEE_call_error_hook
.LVL70:
.LBB877:
.LBB878:
.LBB879:
.LBB880:
	.loc 3 118 0
	.loc 3 119 0
	out __SREG__,r15
.LVL71:
.LBE880:
.LBE879:
.LBE878:
.LBE877:
	.loc 2 359 0
	ldi r24,lo8(1)
	ldi r25,0
.LVL72:
.L39:
/* epilogue start */
	.loc 2 370 0
	pop __tmp_reg__
	pop __tmp_reg__
	pop r29
	pop r28
	pop r17
	pop r16
	pop r15
	pop r14
	pop r13
	pop r12
	pop r11
	pop r10
	pop r9
	pop r8
	pop r7
	pop r6
	pop r5
	pop r4
	ret
	.cfi_endproc
.LFE67:
	.size	StartOS, .-StartOS
	.section	.text.GetActiveApplicationMode,"ax",@progbits
.global	GetActiveApplicationMode
	.type	GetActiveApplicationMode, @function
GetActiveApplicationMode:
.LFB68:
	.loc 2 377 0
	.cfi_startproc
/* prologue: function */
/* frame size = 0 */
/* stack size = 0 */
.L__stack_usage = 0
	.loc 2 380 0
	lds r30,CDB
	lds r31,CDB+1
.LVL73:
	.loc 2 384 0
	ldd r24,Z+8
	ldd r25,Z+9
	or r24,r25
	breq .L51
	.loc 2 385 0
	ldd r24,Z+10
.LVL74:
	ret
.LVL75:
.L51:
	.loc 2 387 0
	ldi r24,lo8(-1)
.LVL76:
/* epilogue start */
	.loc 2 393 0
	ret
	.cfi_endproc
.LFE68:
	.size	GetActiveApplicationMode, .-GetActiveApplicationMode
	.section	.text.ActivateTask,"ax",@progbits
.global	ActivateTask
	.type	ActivateTask, @function
ActivateTask:
.LFB69:
	.loc 2 400 0
	.cfi_startproc
.LVL77:
	push r15
.LCFI22:
	.cfi_def_cfa_offset 3
	.cfi_offset 15, -2
	push r16
.LCFI23:
	.cfi_def_cfa_offset 4
	.cfi_offset 16, -3
	push r17
.LCFI24:
	.cfi_def_cfa_offset 5
	.cfi_offset 17, -4
	push r28
.LCFI25:
	.cfi_def_cfa_offset 6
	.cfi_offset 28, -5
	push r29
.LCFI26:
	.cfi_def_cfa_offset 7
	.cfi_offset 29, -6
/* prologue: function */
/* frame size = 0 */
/* stack size = 5 */
.L__stack_usage = 5
.LVL78:
.LBB881:
.LBB882:
	.loc 1 215 0
	mov r16,r24
	ldi r17,0
.LVL79:
.LBE882:
.LBE881:
	.loc 2 409 0
	lds r24,KDB+6
	lds r25,KDB+6+1
.LVL80:
	cp r16,r24
	cpc r17,r25
	brsh .L56
.LBB883:
	.loc 2 414 0
	lds r30,KDB+2
	lds r31,KDB+2+1
	movw r24,r16
	lsl r24
	rol r25
	add r30,r24
	adc r31,r25
	ld r20,Z
	ldd r21,Z+1
.LVL81:
	.loc 2 418 0
	movw r30,r20
	ldd r24,Z+7
	ldd r25,Z+8
	sbiw r24,2
	brsh .L56
.LBB884:
.LBB885:
.LBB886:
.LBB887:
.LBB888:
	.loc 3 111 0
	in r15,__SREG__
.LVL82:
.LBB889:
.LBB890:
	.loc 3 100 0
/* #APP */
 ;  100 "/home/user/Osek/OSEK-4/erika/src/ee_hal_internal.h" 1
	cli
 ;  0 "" 2
.LVL83:
/* #NOAPP */
.LBE890:
.LBE889:
.LBE888:
.LBE887:
.LBE886:
.LBE885:
	.loc 2 421 0
	ldi r18,lo8(1)
	ldi r19,0
	ldi r22,lo8(CDB)
	ldi r23,hi8(CDB)
	ldi r24,lo8(KDB)
	ldi r25,hi8(KDB)
	call osEE_scheduler_task_activated
.LVL84:
	movw r28,r24
.LVL85:
.LBB891:
.LBB892:
.LBB893:
.LBB894:
	.loc 3 118 0
	.loc 3 119 0
	out __SREG__,r15
.LBE894:
.LBE893:
.LBE892:
.LBE891:
.LBE884:
.LBE883:
	.loc 2 430 0
	or r24,r25
	brne .L53
.LVL86:
.L52:
	.loc 2 451 0
	movw r24,r28
/* epilogue start */
	pop r29
	pop r28
	pop r17
	pop r16
.LVL87:
	pop r15
	ret
.LVL88:
.L56:
	.loc 2 410 0
	ldi r28,lo8(3)
	ldi r29,0
.L53:
.LBB895:
	.loc 2 435 0
	lds r30,CDB
	lds r31,CDB+1
.LBB896:
.LBB897:
.LBB898:
.LBB899:
	.loc 3 111 0
	in r15,__SREG__
.LVL89:
.LBB900:
.LBB901:
	.loc 3 100 0
/* #APP */
 ;  100 "/home/user/Osek/OSEK-4/erika/src/ee_hal_internal.h" 1
	cli
 ;  0 "" 2
.LVL90:
/* #NOAPP */
.LBE901:
.LBE900:
.LBE899:
.LBE898:
.LBE897:
.LBE896:
.LBB902:
.LBB903:
	.loc 1 390 0
	std Z+14,__zero_reg__
	std Z+13,__zero_reg__
.LVL91:
.LBE903:
.LBE902:
.LBB904:
.LBB905:
	.loc 1 407 0
	std Z+16,r17
	std Z+15,r16
.LBE905:
.LBE904:
	.loc 2 442 0
	movw r22,r28
	movw r24,r30
	call osEE_call_error_hook
.LVL92:
.LBB906:
.LBB907:
.LBB908:
.LBB909:
	.loc 3 118 0
	.loc 3 119 0
	out __SREG__,r15
.LVL93:
.LBE909:
.LBE908:
.LBE907:
.LBE906:
.LBE895:
	.loc 2 450 0
	rjmp .L52
	.cfi_endproc
.LFE69:
	.size	ActivateTask, .-ActivateTask
	.section	.text.ChainTask,"ax",@progbits
.global	ChainTask
	.type	ChainTask, @function
ChainTask:
.LFB70:
	.loc 2 459 0
	.cfi_startproc
.LVL94:
	push r13
.LCFI27:
	.cfi_def_cfa_offset 3
	.cfi_offset 13, -2
	push r14
.LCFI28:
	.cfi_def_cfa_offset 4
	.cfi_offset 14, -3
	push r15
.LCFI29:
	.cfi_def_cfa_offset 5
	.cfi_offset 15, -4
	push r16
.LCFI30:
	.cfi_def_cfa_offset 6
	.cfi_offset 16, -5
	push r17
.LCFI31:
	.cfi_def_cfa_offset 7
	.cfi_offset 17, -6
	push r28
.LCFI32:
	.cfi_def_cfa_offset 8
	.cfi_offset 28, -7
	push r29
.LCFI33:
	.cfi_def_cfa_offset 9
	.cfi_offset 29, -8
/* prologue: function */
/* frame size = 0 */
/* stack size = 7 */
.L__stack_usage = 7
.LVL95:
.LBB910:
.LBB911:
	.loc 1 215 0
	mov r14,r24
	mov r15,__zero_reg__
.LVL96:
.LBE911:
.LBE910:
	.loc 2 468 0
	lds r24,KDB+6
	lds r25,KDB+6+1
.LVL97:
	lds r16,CDB
	lds r17,CDB+1
	cp r14,r24
	cpc r15,r25
	brlo .+2
	rjmp .L68
.LVL98:
.LBB912:
.LBB913:
.LBB914:
	.loc 1 92 0
	movw r30,r16
	ld r26,Z
	ldd r27,Z+1
.LVL99:
.LBE914:
.LBE913:
	.loc 2 482 0
	adiw r26,7
	ld r24,X+
	ld r25,X
	sbiw r26,7+1
	sbiw r24,2
	brlo .+2
	rjmp .L66
	.loc 2 486 0
	adiw r26,4
	ld r30,X+
	ld r31,X
	sbiw r26,4+1
	ldd r24,Z+4
	ldd r25,Z+5
	.loc 2 493 0
	ldi r28,lo8(6)
	ldi r29,0
	.loc 2 486 0
	or r24,r25
	brne .L61
	.loc 2 472 0
	lds r30,KDB+2
	lds r31,KDB+2+1
	movw r24,r14
	lsl r24
	rol r25
	add r30,r24
	adc r31,r25
	ld r20,Z
	ldd r21,Z+1
	.loc 2 498 0
	movw r30,r20
	ldd r24,Z+7
	ldd r25,Z+8
	sbiw r24,2
	brsh .L68
.LBB915:
.LBB916:
.LBB917:
.LBB918:
.LBB919:
	.loc 3 111 0
	in r13,__SREG__
.LVL100:
.LBB920:
.LBB921:
	.loc 3 100 0
/* #APP */
 ;  100 "/home/user/Osek/OSEK-4/erika/src/ee_hal_internal.h" 1
	cli
 ;  0 "" 2
.LVL101:
/* #NOAPP */
.LBE921:
.LBE920:
.LBE919:
.LBE918:
.LBE917:
.LBE916:
	.loc 2 501 0
	cp r26,r20
	cpc r27,r21
	brne .L62
	.loc 2 503 0
	adiw r26,4
	ld r30,X+
	ld r31,X
	ldi r24,lo8(5)
	ldi r25,0
	std Z+3,r25
	std Z+2,r24
.LVL102:
.L63:
.LBB922:
.LBB923:
	.loc 4 136 0
	movw r26,r16
	ld r30,X+
	ld r31,X
	ldi r22,lo8(gs(osEE_scheduler_task_end))
	ldi r23,hi8(gs(osEE_scheduler_task_end))
	ldd r24,Z+2
	ldd r25,Z+3
	call osEE_hal_terminate_ctx
.LVL103:
.L62:
.LBE923:
.LBE922:
	.loc 2 506 0
	ldi r19,0
	ldi r18,0
	ldi r22,lo8(CDB)
	ldi r23,hi8(CDB)
	ldi r24,lo8(KDB)
	ldi r25,hi8(KDB)
	call osEE_scheduler_task_activated
.LVL104:
	movw r28,r24
.LVL105:
	.loc 2 508 0
	or r24,r25
	breq .L63
.LVL106:
.LBB924:
.LBB925:
.LBB926:
.LBB927:
	.loc 3 118 0
	.loc 3 119 0
	out __SREG__,r13
.LVL107:
.L61:
.LBE927:
.LBE926:
.LBE925:
.LBE924:
.LBE915:
.LBE912:
.LBB928:
.LBB929:
.LBB930:
.LBB931:
.LBB932:
	.loc 3 111 0
	in r13,__SREG__
.LVL108:
.LBB933:
.LBB934:
	.loc 3 100 0
/* #APP */
 ;  100 "/home/user/Osek/OSEK-4/erika/src/ee_hal_internal.h" 1
	cli
 ;  0 "" 2
.LVL109:
/* #NOAPP */
.LBE934:
.LBE933:
.LBE932:
.LBE931:
.LBE930:
.LBE929:
.LBB935:
.LBB936:
	.loc 1 390 0
	ldi r24,lo8(4)
	ldi r25,0
	movw r30,r16
	std Z+14,r25
	std Z+13,r24
.LVL110:
.LBE936:
.LBE935:
.LBB937:
.LBB938:
	.loc 1 407 0
	std Z+16,r15
	std Z+15,r14
.LBE938:
.LBE937:
	.loc 2 532 0
	movw r22,r28
	movw r24,r16
	call osEE_call_error_hook
.LVL111:
.LBB939:
.LBB940:
.LBB941:
.LBB942:
	.loc 3 118 0
	.loc 3 119 0
	out __SREG__,r13
.LVL112:
.LBE942:
.LBE941:
.LBE940:
.LBE939:
.LBE928:
	.loc 2 541 0
	movw r24,r28
/* epilogue start */
	pop r29
	pop r28
	pop r17
	pop r16
.LVL113:
	pop r15
	pop r14
.LVL114:
	pop r13
	ret
.LVL115:
.L66:
.LBB943:
	.loc 2 483 0
	ldi r28,lo8(2)
	ldi r29,0
	rjmp .L61
.LVL116:
.L68:
.LBE943:
	.loc 2 469 0
	ldi r28,lo8(3)
	ldi r29,0
	rjmp .L61
	.cfi_endproc
.LFE70:
	.size	ChainTask, .-ChainTask
	.section	.text.TerminateTask,"ax",@progbits
.global	TerminateTask
	.type	TerminateTask, @function
TerminateTask:
.LFB71:
	.loc 2 548 0
	.cfi_startproc
	push r17
.LCFI34:
	.cfi_def_cfa_offset 3
	.cfi_offset 17, -2
	push r28
.LCFI35:
	.cfi_def_cfa_offset 4
	.cfi_offset 28, -3
	push r29
.LCFI36:
	.cfi_def_cfa_offset 5
	.cfi_offset 29, -4
/* prologue: function */
/* frame size = 0 */
/* stack size = 3 */
.L__stack_usage = 3
	.loc 2 553 0
	lds r24,CDB
	lds r25,CDB+1
.LVL117:
	.loc 2 555 0
	movw r26,r24
	ld r30,X+
	ld r31,X
.LVL118:
	.loc 2 573 0
	ldd r18,Z+7
	ldd r19,Z+8
	cpi r18,2
	cpc r19,__zero_reg__
	brsh .L71
	.loc 2 584 0
	ldd r26,Z+4
	ldd r27,Z+5
	adiw r26,4
	ld r18,X+
	ld r19,X
	.loc 2 591 0
	ldi r28,lo8(6)
	ldi r29,0
	.loc 2 584 0
	or r18,r19
	brne .L70
.LBB944:
.LBB945:
.LBB946:
.LBB947:
.LBB948:
	.loc 3 111 0
	in r24,__SREG__
.LBB949:
.LBB950:
	.loc 3 100 0
/* #APP */
 ;  100 "/home/user/Osek/OSEK-4/erika/src/ee_hal_internal.h" 1
	cli
 ;  0 "" 2
.LVL119:
/* #NOAPP */
.LBE950:
.LBE949:
.LBE948:
.LBE947:
.LBE946:
.LBE945:
.LBB951:
.LBB952:
	.loc 4 136 0
	ldi r22,lo8(gs(osEE_scheduler_task_end))
	ldi r23,hi8(gs(osEE_scheduler_task_end))
	ldd r24,Z+2
	ldd r25,Z+3
	call osEE_hal_terminate_ctx
.LVL120:
.L71:
.LBE952:
.LBE951:
.LBE944:
	.loc 2 581 0
	ldi r28,lo8(2)
	ldi r29,0
.L70:
.LVL121:
.LBB953:
.LBB954:
.LBB955:
.LBB956:
.LBB957:
	.loc 3 111 0
	in r17,__SREG__
.LVL122:
.LBB958:
.LBB959:
	.loc 3 100 0
/* #APP */
 ;  100 "/home/user/Osek/OSEK-4/erika/src/ee_hal_internal.h" 1
	cli
 ;  0 "" 2
.LVL123:
/* #NOAPP */
.LBE959:
.LBE958:
.LBE957:
.LBE956:
.LBE955:
.LBE954:
.LBB960:
.LBB961:
	.loc 1 390 0
	ldi r18,lo8(2)
	ldi r19,0
	movw r30,r24
.LVL124:
	std Z+14,r19
	std Z+13,r18
.LVL125:
.LBE961:
.LBE960:
	.loc 2 617 0
	movw r22,r28
	call osEE_call_error_hook
.LVL126:
.LBB962:
.LBB963:
.LBB964:
.LBB965:
	.loc 3 118 0
	.loc 3 119 0
	out __SREG__,r17
.LVL127:
.LBE965:
.LBE964:
.LBE963:
.LBE962:
.LBE953:
	.loc 2 625 0
	movw r24,r28
/* epilogue start */
	pop r29
	pop r28
.LVL128:
	pop r17
	ret
	.cfi_endproc
.LFE71:
	.size	TerminateTask, .-TerminateTask
	.section	.text.Schedule,"ax",@progbits
.global	Schedule
	.type	Schedule, @function
Schedule:
.LFB72:
	.loc 2 632 0
	.cfi_startproc
	push r15
.LCFI37:
	.cfi_def_cfa_offset 3
	.cfi_offset 15, -2
	push r16
.LCFI38:
	.cfi_def_cfa_offset 4
	.cfi_offset 16, -3
	push r17
.LCFI39:
	.cfi_def_cfa_offset 5
	.cfi_offset 17, -4
	push r28
.LCFI40:
	.cfi_def_cfa_offset 6
	.cfi_offset 28, -5
	push r29
.LCFI41:
	.cfi_def_cfa_offset 7
	.cfi_offset 29, -6
/* prologue: function */
/* frame size = 0 */
/* stack size = 5 */
.L__stack_usage = 5
	.loc 2 635 0
	lds r24,CDB
	lds r25,CDB+1
.LVL129:
	.loc 2 636 0
	movw r30,r24
	ld r28,Z
	ldd r29,Z+1
.LVL130:
	.loc 2 642 0
	ldd r18,Y+7
	ldd r19,Y+8
	cpi r18,2
	cpc r19,__zero_reg__
	brsh .L76
	.loc 2 637 0
	ldd r16,Y+4
	ldd r17,Y+5
	.loc 2 646 0
	movw r30,r16
	ldd r18,Z+4
	ldd r19,Z+5
	or r18,r19
	brne .L77
	.loc 2 651 0
	ldd r25,Z+1
	ldd r24,Y+12
	cpse r25,r24
	rjmp .L78
.LBB966:
.LBB967:
.LBB968:
.LBB969:
.LBB970:
	.loc 3 111 0
	in r15,__SREG__
.LVL131:
.LBB971:
.LBB972:
	.loc 3 100 0
/* #APP */
 ;  100 "/home/user/Osek/OSEK-4/erika/src/ee_hal_internal.h" 1
	cli
 ;  0 "" 2
.LVL132:
/* #NOAPP */
.LBE972:
.LBE971:
.LBE970:
.LBE969:
.LBE968:
.LBE967:
	.loc 2 657 0
	ldd r24,Y+11
	std Z+1,r24
.LVL133:
	.loc 2 659 0
	ldi r22,lo8(CDB)
	ldi r23,hi8(CDB)
	ldi r24,lo8(KDB)
	ldi r25,hi8(KDB)
	call osEE_scheduler_task_preemption_point
.LVL134:
	.loc 2 661 0
	ldd r24,Y+12
	movw r30,r16
	std Z+1,r24
.LBB973:
.LBB974:
.LBB975:
.LBB976:
	.loc 3 118 0
	.loc 3 119 0
	out __SREG__,r15
.LVL135:
.L78:
.LBE976:
.LBE975:
.LBE974:
.LBE973:
.LBE966:
	.loc 2 669 0
	ldi r29,0
	ldi r28,0
.LVL136:
	.loc 2 684 0
	rjmp .L73
.LVL137:
.L76:
	.loc 2 643 0
	ldi r28,lo8(2)
	ldi r29,0
.LVL138:
.L74:
.LBB977:
.LBB978:
.LBB979:
.LBB980:
.LBB981:
	.loc 3 111 0
	in r17,__SREG__
.LVL139:
.LBB982:
.LBB983:
	.loc 3 100 0
/* #APP */
 ;  100 "/home/user/Osek/OSEK-4/erika/src/ee_hal_internal.h" 1
	cli
 ;  0 "" 2
.LVL140:
/* #NOAPP */
.LBE983:
.LBE982:
.LBE981:
.LBE980:
.LBE979:
.LBE978:
.LBB984:
.LBB985:
	.loc 1 390 0
	ldi r18,lo8(6)
	ldi r19,0
	movw r30,r24
	std Z+14,r19
	std Z+13,r18
.LVL141:
.LBE985:
.LBE984:
	.loc 2 677 0
	movw r22,r28
	call osEE_call_error_hook
.LVL142:
.LBB986:
.LBB987:
.LBB988:
.LBB989:
	.loc 3 118 0
	.loc 3 119 0
	out __SREG__,r17
.LVL143:
.L73:
.LBE989:
.LBE988:
.LBE987:
.LBE986:
.LBE977:
	.loc 2 685 0
	movw r24,r28
/* epilogue start */
	pop r29
	pop r28
	pop r17
	pop r16
	pop r15
	ret
.LVL144:
.L77:
	.loc 2 647 0
	ldi r28,lo8(6)
	ldi r29,0
.LVL145:
	rjmp .L74
	.cfi_endproc
.LFE72:
	.size	Schedule, .-Schedule
	.section	.text.GetResource,"ax",@progbits
.global	GetResource
	.type	GetResource, @function
GetResource:
.LFB73:
	.loc 2 693 0
	.cfi_startproc
.LVL146:
	push r17
.LCFI42:
	.cfi_def_cfa_offset 3
	.cfi_offset 17, -2
	push r28
.LCFI43:
	.cfi_def_cfa_offset 4
	.cfi_offset 28, -3
	push r29
.LCFI44:
	.cfi_def_cfa_offset 5
	.cfi_offset 29, -4
/* prologue: function */
/* frame size = 0 */
/* stack size = 3 */
.L__stack_usage = 3
.LVL147:
.LBB990:
.LBB991:
	.loc 1 230 0
	mov r18,r24
	ldi r19,0
.LVL148:
	lds r26,CDB
	lds r27,CDB+1
.LBE991:
.LBE990:
	.loc 2 702 0
	lds r24,KDB+12
	lds r25,KDB+12+1
.LVL149:
	cp r18,r24
	cpc r19,r25
	brsh .L83
.LBB992:
	.loc 2 707 0
	lds r30,KDB+10
	lds r31,KDB+10+1
	movw r24,r18
	lsl r24
	rol r25
	add r30,r24
	adc r31,r25
	ld r24,Z
	ldd r25,Z+1
.LVL150:
	.loc 2 709 0
	movw r30,r24
	ld r28,Z
	ldd r29,Z+1
.LVL151:
	.loc 2 718 0
	ldd r20,Y+3
	ldd r21,Y+4
	or r20,r21
	brne .L85
.LBB993:
.LBB994:
	.loc 1 92 0 discriminator 1
	ld r22,X+
	ld r23,X
	sbiw r26,1
.LBE994:
.LBE993:
	.loc 2 715 0 discriminator 1
	ldd r20,Z+2
	.loc 2 718 0 discriminator 1
	movw r30,r22
	ldd r21,Z+11
	cp r20,r21
	brlo .L85
	.loc 2 713 0
	ldd __tmp_reg__,Z+4
	ldd r31,Z+5
	mov r30,__tmp_reg__
.LBB995:
	.loc 2 724 0
	ldd r18,Z+1
.LVL152:
	.loc 2 726 0
	cp r18,r20
	brsh .L81
.LVL153:
	.loc 2 729 0
	std Z+1,r20
.LVL154:
.L81:
	.loc 2 732 0
	ldd r20,Z+4
	ldd r21,Z+5
.LVL155:
	std Y+1,r21
	st Y,r20
	.loc 2 733 0
	std Y+2,r18
	.loc 2 735 0
	ldi r18,lo8(1)
	ldi r19,0
.LVL156:
	std Y+4,r19
	std Y+3,r18
	.loc 2 740 0
	std Z+5,r25
	std Z+4,r24
.LVL157:
	.loc 2 742 0
	ldi r29,0
	ldi r28,0
.LVL158:
.L79:
.LBE995:
.LBE992:
	.loc 2 768 0
	movw r24,r28
/* epilogue start */
	pop r29
	pop r28
	pop r17
	ret
.LVL159:
.L83:
	.loc 2 703 0
	ldi r28,lo8(3)
	ldi r29,0
.L80:
.LVL160:
.LBB996:
.LBB997:
.LBB998:
.LBB999:
.LBB1000:
	.loc 3 111 0
	in r17,__SREG__
.LVL161:
.LBB1001:
.LBB1002:
	.loc 3 100 0
/* #APP */
 ;  100 "/home/user/Osek/OSEK-4/erika/src/ee_hal_internal.h" 1
	cli
 ;  0 "" 2
.LVL162:
/* #NOAPP */
.LBE1002:
.LBE1001:
.LBE1000:
.LBE999:
.LBE998:
.LBE997:
.LBB1003:
.LBB1004:
	.loc 1 390 0
	ldi r24,lo8(24)
	ldi r25,0
	adiw r26,13+1
	st X,r25
	st -X,r24
	sbiw r26,13
.LVL163:
.LBE1004:
.LBE1003:
.LBB1005:
.LBB1006:
	.loc 1 407 0
	adiw r26,15+1
	st X,r19
	st -X,r18
	sbiw r26,15
.LBE1006:
.LBE1005:
	.loc 2 759 0
	movw r22,r28
	movw r24,r26
	call osEE_call_error_hook
.LVL164:
.LBB1007:
.LBB1008:
.LBB1009:
.LBB1010:
	.loc 3 118 0
	.loc 3 119 0
	out __SREG__,r17
.LBE1010:
.LBE1009:
.LBE1008:
.LBE1007:
.LBE996:
	.loc 2 767 0
	rjmp .L79
.LVL165:
.L85:
.LBB1011:
	.loc 2 719 0
	ldi r28,lo8(1)
	ldi r29,0
.LVL166:
	rjmp .L80
.LBE1011:
	.cfi_endproc
.LFE73:
	.size	GetResource, .-GetResource
	.section	.text.ReleaseResource,"ax",@progbits
.global	ReleaseResource
	.type	ReleaseResource, @function
ReleaseResource:
.LFB74:
	.loc 2 775 0
	.cfi_startproc
.LVL167:
	push r14
.LCFI45:
	.cfi_def_cfa_offset 3
	.cfi_offset 14, -2
	push r15
.LCFI46:
	.cfi_def_cfa_offset 4
	.cfi_offset 15, -3
	push r17
.LCFI47:
	.cfi_def_cfa_offset 5
	.cfi_offset 17, -4
	push r28
.LCFI48:
	.cfi_def_cfa_offset 6
	.cfi_offset 28, -5
	push r29
.LCFI49:
	.cfi_def_cfa_offset 7
	.cfi_offset 29, -6
/* prologue: function */
/* frame size = 0 */
/* stack size = 5 */
.L__stack_usage = 5
.LVL168:
.LBB1012:
.LBB1013:
	.loc 1 230 0
	mov r18,r24
	ldi r19,0
.LVL169:
	lds r26,CDB
	lds r27,CDB+1
.LBE1013:
.LBE1012:
	.loc 2 784 0
	lds r24,KDB+12
	lds r25,KDB+12+1
.LVL170:
	cp r18,r24
	cpc r19,r25
	brlo .+2
	rjmp .L91
.LVL171:
.LBB1014:
	.loc 2 793 0
	lds r30,KDB+10
	lds r31,KDB+10+1
	movw r24,r18
	lsl r24
	rol r25
	add r30,r24
	adc r31,r25
	ld r20,Z
	ldd r21,Z+1
.LVL172:
	.loc 2 795 0
	movw r28,r20
	ld r14,Y
	ldd r15,Y+1
.LVL173:
	.loc 2 798 0
	movw r30,r14
	ldd r24,Z+3
	ldd r25,Z+4
	or r24,r25
	brne .+2
	rjmp .L93
.LBB1015:
.LBB1016:
	.loc 1 92 0 discriminator 1
	ld r24,X+
	ld r25,X
	sbiw r26,1
.LBE1016:
.LBE1015:
	.loc 2 791 0 discriminator 1
	movw r28,r24
	ldd r30,Y+4
	ldd r31,Y+5
	.loc 2 798 0 discriminator 1
	ldd r22,Z+4
	ldd r23,Z+5
	cp r22,r20
	cpc r23,r21
	brne .L93
.LBB1017:
.LBB1018:
.LBB1019:
.LBB1020:
.LBB1021:
	.loc 3 111 0
	in r17,__SREG__
.LVL174:
.LBB1022:
.LBB1023:
	.loc 3 100 0
/* #APP */
 ;  100 "/home/user/Osek/OSEK-4/erika/src/ee_hal_internal.h" 1
	cli
 ;  0 "" 2
.LVL175:
/* #NOAPP */
.LBE1023:
.LBE1022:
.LBE1021:
.LBE1020:
.LBE1019:
.LBE1018:
	.loc 2 806 0
	ldd r26,Z+4
	ldd r27,Z+5
.LVL176:
	ld __tmp_reg__,X+
	ld r27,X
	mov r26,__tmp_reg__
	ld r18,X+
	ld r19,X
.LVL177:
	std Z+5,r19
	std Z+4,r18
	.loc 2 809 0
	or r18,r19
	breq .L88
.LVL178:
.LBB1024:
	.loc 2 813 0
	movw r26,r14
	adiw r26,2
	ld r24,X
.LVL179:
.L94:
.LBE1024:
.LBB1025:
	.loc 2 819 0
	std Z+1,r24
.LVL180:
.LBE1025:
	.loc 2 823 0
	movw r30,r14
	std Z+4,__zero_reg__
	std Z+3,__zero_reg__
	.loc 2 830 0
	ldi r22,lo8(CDB)
	ldi r23,hi8(CDB)
	ldi r24,lo8(KDB)
	ldi r25,hi8(KDB)
	call osEE_scheduler_task_preemption_point
.LVL181:
.LBB1026:
.LBB1027:
.LBB1028:
.LBB1029:
	.loc 3 118 0
	.loc 3 119 0
	out __SREG__,r17
.LVL182:
.LBE1029:
.LBE1028:
.LBE1027:
.LBE1026:
	.loc 2 834 0
	ldi r29,0
	ldi r28,0
.LVL183:
.L86:
.LBE1017:
.LBE1014:
	.loc 2 859 0
	movw r24,r28
/* epilogue start */
	pop r29
	pop r28
	pop r17
	pop r15
	pop r14
	ret
.LVL184:
.L88:
.LBB1032:
.LBB1031:
.LBB1030:
	.loc 2 819 0
	ldd r24,Y+12
.LVL185:
	rjmp .L94
.LVL186:
.L91:
.LBE1030:
.LBE1031:
.LBE1032:
	.loc 2 785 0
	ldi r28,lo8(3)
	ldi r29,0
.L87:
.LVL187:
.LBB1033:
.LBB1034:
.LBB1035:
.LBB1036:
.LBB1037:
	.loc 3 111 0
	in r17,__SREG__
.LVL188:
.LBB1038:
.LBB1039:
	.loc 3 100 0
/* #APP */
 ;  100 "/home/user/Osek/OSEK-4/erika/src/ee_hal_internal.h" 1
	cli
 ;  0 "" 2
.LVL189:
/* #NOAPP */
.LBE1039:
.LBE1038:
.LBE1037:
.LBE1036:
.LBE1035:
.LBE1034:
.LBB1040:
.LBB1041:
	.loc 1 390 0
	ldi r24,lo8(26)
	ldi r25,0
	adiw r26,13+1
	st X,r25
	st -X,r24
	sbiw r26,13
.LVL190:
.LBE1041:
.LBE1040:
.LBB1042:
.LBB1043:
	.loc 1 407 0
	adiw r26,15+1
	st X,r19
	st -X,r18
	sbiw r26,15
.LBE1043:
.LBE1042:
	.loc 2 851 0
	movw r22,r28
	movw r24,r26
	call osEE_call_error_hook
.LVL191:
.LBB1044:
.LBB1045:
.LBB1046:
.LBB1047:
	.loc 3 118 0
	.loc 3 119 0
	out __SREG__,r17
.LBE1047:
.LBE1046:
.LBE1045:
.LBE1044:
.LBE1033:
	.loc 2 858 0
	rjmp .L86
.LVL192:
.L93:
.LBB1048:
	.loc 2 799 0
	ldi r28,lo8(5)
	ldi r29,0
	rjmp .L87
.LBE1048:
	.cfi_endproc
.LFE74:
	.size	ReleaseResource, .-ReleaseResource
	.section	.text.ShutdownOS,"ax",@progbits
.global	ShutdownOS
	.type	ShutdownOS, @function
ShutdownOS:
.LFB75:
	.loc 2 867 0
	.cfi_startproc
.LVL193:
	push r28
.LCFI50:
	.cfi_def_cfa_offset 3
	.cfi_offset 28, -2
/* prologue: function */
/* frame size = 0 */
/* stack size = 1 */
.L__stack_usage = 1
	.loc 2 870 0
	lds r30,CDB
	lds r31,CDB+1
.LVL194:
.LBB1049:
.LBB1050:
.LBB1051:
.LBB1052:
	.loc 3 111 0
	in r28,__SREG__
.LVL195:
.LBB1053:
.LBB1054:
	.loc 3 100 0
/* #APP */
 ;  100 "/home/user/Osek/OSEK-4/erika/src/ee_hal_internal.h" 1
	cli
 ;  0 "" 2
.LVL196:
/* #NOAPP */
.LBE1054:
.LBE1053:
.LBE1052:
.LBE1051:
.LBE1050:
.LBE1049:
	.loc 2 876 0
	ldd r18,Z+8
	ldd r19,Z+9
	subi r18,1
	sbc r19,__zero_reg__
	cpi r18,2
	cpc r19,__zero_reg__
	brsh .L96
	.loc 2 878 0
	ldi r18,lo8(3)
	ldi r19,0
	std Z+9,r19
	std Z+8,r18
.LVL197:
	.loc 2 880 0
	std Z+12,r25
	std Z+11,r24
.LBB1055:
.LBB1056:
	.loc 3 100 0
/* #APP */
 ;  100 "/home/user/Osek/OSEK-4/erika/src/ee_hal_internal.h" 1
	cli
 ;  0 "" 2
/* #NOAPP */
.L97:
	rjmp .L97
.LVL198:
.L96:
.LBE1056:
.LBE1055:
	.loc 2 899 0
	ldi r22,lo8(7)
	ldi r23,0
	movw r24,r30
.LVL199:
	call osEE_call_error_hook
.LVL200:
.LBB1057:
.LBB1058:
.LBB1059:
.LBB1060:
	.loc 3 118 0
	.loc 3 119 0
	out __SREG__,r28
.LVL201:
.LBE1060:
.LBE1059:
.LBE1058:
.LBE1057:
	.loc 2 906 0
	ldi r24,lo8(7)
	ldi r25,0
/* epilogue start */
	pop r28
	ret
	.cfi_endproc
.LFE75:
	.size	ShutdownOS, .-ShutdownOS
	.section	.text.GetTaskID,"ax",@progbits
.global	GetTaskID
	.type	GetTaskID, @function
GetTaskID:
.LFB76:
	.loc 2 913 0
	.cfi_startproc
.LVL202:
	push r28
.LCFI51:
	.cfi_def_cfa_offset 3
	.cfi_offset 28, -2
	push r29
.LCFI52:
	.cfi_def_cfa_offset 4
	.cfi_offset 29, -3
/* prologue: function */
/* frame size = 0 */
/* stack size = 2 */
.L__stack_usage = 2
	movw r26,r24
	lds r30,CDB
	lds r31,CDB+1
	.loc 2 926 0
	or r24,r25
	brne .L99
.LVL203:
.LBB1061:
.LBB1062:
.LBB1063:
.LBB1064:
.LBB1065:
	.loc 3 111 0
	in r28,__SREG__
.LVL204:
.LBB1066:
.LBB1067:
	.loc 3 100 0
/* #APP */
 ;  100 "/home/user/Osek/OSEK-4/erika/src/ee_hal_internal.h" 1
	cli
 ;  0 "" 2
.LVL205:
/* #NOAPP */
.LBE1067:
.LBE1066:
.LBE1065:
.LBE1064:
.LBE1063:
.LBE1062:
.LBB1068:
.LBB1069:
	.loc 1 390 0
	ldi r24,lo8(8)
	ldi r25,0
.LVL206:
	std Z+14,r25
	std Z+13,r24
.LVL207:
.LBE1069:
.LBE1068:
.LBB1070:
.LBB1071:
	.loc 1 407 0
	std Z+16,__zero_reg__
	std Z+15,__zero_reg__
.LBE1071:
.LBE1070:
	.loc 2 972 0
	ldi r22,lo8(14)
	ldi r23,0
	movw r24,r30
	call osEE_call_error_hook
.LVL208:
.LBB1072:
.LBB1073:
.LBB1074:
.LBB1075:
	.loc 3 118 0
	.loc 3 119 0
	out __SREG__,r28
.LVL209:
.LBE1075:
.LBE1074:
.LBE1073:
.LBE1072:
.LBE1061:
	.loc 2 927 0
	ldi r24,lo8(14)
	ldi r25,0
.LVL210:
.L98:
/* epilogue start */
	.loc 2 981 0
	pop r29
	pop r28
	ret
.LVL211:
.L99:
.LBB1076:
.LBB1077:
.LBB1078:
	.loc 1 92 0
	ld r28,Z
	ldd r29,Z+1
.LBE1078:
.LBE1077:
	.loc 2 934 0
	ldd r24,Y+7
	ldd r25,Y+8
.LVL212:
	cpi r24,2
	cpc r25,__zero_reg__
	brsh .L101
.L107:
.LBB1079:
.LBB1080:
	.loc 2 947 0
	ldd r25,Y+6
.LVL213:
.L102:
.LBE1080:
.LBE1079:
	.loc 2 955 0
	st X,r25
.LVL214:
	.loc 2 956 0
	ldi r25,0
.LVL215:
	ldi r24,0
.LBE1076:
	.loc 2 980 0
	rjmp .L98
.LVL216:
.L101:
.LBB1085:
	.loc 2 936 0
	sbiw r24,2
	brne .L106
.LVL217:
.LBB1083:
	.loc 2 941 0
	ldd __tmp_reg__,Z+6
	ldd r31,Z+7
	mov r30,__tmp_reg__
.L104:
.LBB1081:
	.loc 2 950 0
	ld __tmp_reg__,Z+
	ld r31,Z
	mov r30,__tmp_reg__
.LVL218:
.LBE1081:
	.loc 2 943 0
	sbiw r30,0
	brne .L105
.LVL219:
.L106:
.LBE1083:
	.loc 2 930 0
	ldi r25,lo8(-1)
	rjmp .L102
.LVL220:
.L105:
.LBB1084:
.LBB1082:
	.loc 2 945 0
	ldd r28,Z+2
	ldd r29,Z+3
.LVL221:
	.loc 2 946 0
	ldd r24,Y+7
	ldd r25,Y+8
	sbiw r24,2
	brsh .L104
	rjmp .L107
.LBE1082:
.LBE1084:
.LBE1085:
	.cfi_endproc
.LFE76:
	.size	GetTaskID, .-GetTaskID
	.section	.text.GetTaskState,"ax",@progbits
.global	GetTaskState
	.type	GetTaskState, @function
GetTaskState:
.LFB77:
	.loc 2 989 0
	.cfi_startproc
.LVL222:
	push r17
.LCFI53:
	.cfi_def_cfa_offset 3
	.cfi_offset 17, -2
	push r28
.LCFI54:
	.cfi_def_cfa_offset 4
	.cfi_offset 28, -3
	push r29
.LCFI55:
	.cfi_def_cfa_offset 5
	.cfi_offset 29, -4
/* prologue: function */
/* frame size = 0 */
/* stack size = 3 */
.L__stack_usage = 3
	movw r30,r22
	mov r18,r24
	ldi r19,0
	.loc 2 1003 0
	sbiw r30,0
	breq .L116
.LVL223:
	.loc 2 1006 0
	lds r24,KDB+6
	lds r25,KDB+6+1
.LVL224:
	cp r18,r24
	cpc r19,r25
	brlo .+2
	rjmp .L117
.LVL225:
.LBB1086:
	.loc 2 1011 0
	lds r24,KDB+2
	lds r25,KDB+2+1
	lsl r18
	rol r19
.LVL226:
	add r18,r24
	adc r19,r25
	.loc 2 1014 0
	movw r28,r18
	ld r26,Y
	ldd r27,Y+1
	adiw r26,4
	ld __tmp_reg__,X+
	ld r27,X
	mov r26,__tmp_reg__
	.loc 2 1015 0
	adiw r26,2
	ld r24,X+
	ld r25,X
	clr r25
	cpi r24,3
	cpc r25,__zero_reg__
	brsh .L111
	sbiw r24,1
	brlo .L119
	.loc 2 1021 0
	ldi r24,lo8(1)
	ldi r25,0
.L121:
	.loc 2 1028 0
	std Z+1,r25
	st Z,r24
	rjmp .L118
.L111:
	.loc 2 1015 0
	cpi r24,3
	cpc r25,__zero_reg__
	breq .L121
	sbiw r24,6
	brlo .L120
.L118:
	.loc 2 1034 0
	ldi r29,0
	ldi r28,0
.LBE1086:
	.loc 2 1060 0
	rjmp .L108
.L119:
.LBB1087:
	.loc 2 1017 0
	std Z+1,__zero_reg__
	st Z,__zero_reg__
	rjmp .L118
.L120:
	.loc 2 1028 0
	ldi r24,lo8(4)
	ldi r25,0
	rjmp .L121
.LVL227:
.L116:
.LBE1087:
	.loc 2 1004 0
	ldi r28,lo8(14)
	ldi r29,0
.L109:
.LBB1088:
	.loc 2 1043 0
	lds r26,CDB
	lds r27,CDB+1
.LBB1089:
.LBB1090:
.LBB1091:
.LBB1092:
	.loc 3 111 0
	in r17,__SREG__
.LVL228:
.LBB1093:
.LBB1094:
	.loc 3 100 0
/* #APP */
 ;  100 "/home/user/Osek/OSEK-4/erika/src/ee_hal_internal.h" 1
	cli
 ;  0 "" 2
.LVL229:
/* #NOAPP */
.LBE1094:
.LBE1093:
.LBE1092:
.LBE1091:
.LBE1090:
.LBE1089:
.LBB1095:
.LBB1096:
	.loc 1 390 0
	ldi r24,lo8(10)
	ldi r25,0
	adiw r26,13+1
	st X,r25
	st -X,r24
	sbiw r26,13
.LVL230:
.LBE1096:
.LBE1095:
.LBB1097:
.LBB1098:
	.loc 1 407 0
	adiw r26,15+1
	st X,r19
	st -X,r18
	sbiw r26,15
.LVL231:
.LBE1098:
.LBE1097:
.LBB1099:
.LBB1100:
	.loc 1 422 0
	adiw r26,17+1
	st X,r31
	st -X,r30
	sbiw r26,17
.LBE1100:
.LBE1099:
	.loc 2 1052 0
	movw r22,r28
.LVL232:
	movw r24,r26
	call osEE_call_error_hook
.LVL233:
.LBB1101:
.LBB1102:
.LBB1103:
.LBB1104:
	.loc 3 118 0
	.loc 3 119 0
	out __SREG__,r17
.LVL234:
.L108:
.LBE1104:
.LBE1103:
.LBE1102:
.LBE1101:
.LBE1088:
	.loc 2 1061 0
	movw r24,r28
/* epilogue start */
	pop r29
	pop r28
	pop r17
	ret
.LVL235:
.L117:
	.loc 2 1007 0
	ldi r28,lo8(3)
	ldi r29,0
	rjmp .L109
	.cfi_endproc
.LFE77:
	.size	GetTaskState, .-GetTaskState
	.section	.text.SetRelAlarm,"ax",@progbits
.global	SetRelAlarm
	.type	SetRelAlarm, @function
SetRelAlarm:
.LFB78:
	.loc 2 1071 0
	.cfi_startproc
.LVL236:
	push r11
.LCFI56:
	.cfi_def_cfa_offset 3
	.cfi_offset 11, -2
	push r12
.LCFI57:
	.cfi_def_cfa_offset 4
	.cfi_offset 12, -3
	push r13
.LCFI58:
	.cfi_def_cfa_offset 5
	.cfi_offset 13, -4
	push r14
.LCFI59:
	.cfi_def_cfa_offset 6
	.cfi_offset 14, -5
	push r15
.LCFI60:
	.cfi_def_cfa_offset 7
	.cfi_offset 15, -6
	push r16
.LCFI61:
	.cfi_def_cfa_offset 8
	.cfi_offset 16, -7
	push r17
.LCFI62:
	.cfi_def_cfa_offset 9
	.cfi_offset 17, -8
	push r28
.LCFI63:
	.cfi_def_cfa_offset 10
	.cfi_offset 28, -9
	push r29
.LCFI64:
	.cfi_def_cfa_offset 11
	.cfi_offset 29, -10
/* prologue: function */
/* frame size = 0 */
/* stack size = 9 */
.L__stack_usage = 9
	movw r12,r22
	movw r16,r20
.LVL237:
.LBB1105:
.LBB1106:
	.loc 1 565 0
	mov r14,r24
	mov r15,__zero_reg__
.LVL238:
.LBE1106:
.LBE1105:
	.loc 2 1081 0
	lds r24,KDB+20
	lds r25,KDB+20+1
.LVL239:
	cp r14,r24
	cpc r15,r25
	brsh .L126
.LVL240:
.LBB1107:
	.loc 2 1092 0
	or r22,r23
	brne .+2
	rjmp .L130
	.loc 2 1086 0 discriminator 1
	lds r30,KDB+18
	lds r31,KDB+18+1
	movw r24,r14
	lsl r24
	rol r25
	add r30,r24
	adc r31,r25
	ld r22,Z
	ldd r23,Z+1
.LVL241:
	.loc 2 1088 0 discriminator 1
	movw r30,r22
	ldd r24,Z+2
	ldd r25,Z+3
	.loc 2 1093 0 discriminator 1
	movw r30,r24
	ldd r18,Z+2
	ldd r19,Z+3
	.loc 2 1092 0 discriminator 1
	cp r18,r12
	cpc r19,r13
	brlo .L130
	.loc 2 1093 0
	or r20,r21
	breq .L124
	.loc 2 1094 0
	ldd r20,Z+6
	ldd r21,Z+7
.LVL242:
	cp r16,r20
	cpc r17,r21
	brlo .L130
	.loc 2 1094 0 is_stmt 0 discriminator 1
	cp r18,r16
	cpc r19,r17
	brlo .L130
.L124:
.LBB1108:
.LBB1109:
.LBB1110:
.LBB1111:
.LBB1112:
	.loc 3 111 0 is_stmt 1
	in r11,__SREG__
.LVL243:
.LBB1113:
.LBB1114:
	.loc 3 100 0
/* #APP */
 ;  100 "/home/user/Osek/OSEK-4/erika/src/ee_hal_internal.h" 1
	cli
 ;  0 "" 2
.LVL244:
/* #NOAPP */
.LBE1114:
.LBE1113:
.LBE1112:
.LBE1111:
.LBE1110:
.LBE1109:
	.loc 2 1105 0
	movw r18,r16
	movw r20,r12
	call osEE_alarm_set_rel
.LVL245:
	movw r28,r24
.LVL246:
.LBB1115:
.LBB1116:
.LBB1117:
.LBB1118:
	.loc 3 118 0
	.loc 3 119 0
	out __SREG__,r11
.LBE1118:
.LBE1117:
.LBE1116:
.LBE1115:
.LBE1108:
.LBE1107:
	.loc 2 1112 0
	or r24,r25
	brne .L123
.LVL247:
.L122:
	.loc 2 1137 0
	movw r24,r28
/* epilogue start */
	pop r29
	pop r28
	pop r17
	pop r16
.LVL248:
	pop r15
	pop r14
.LVL249:
	pop r13
	pop r12
.LVL250:
	pop r11
	ret
.LVL251:
.L126:
	.loc 2 1082 0
	ldi r28,lo8(3)
	ldi r29,0
.L123:
.LBB1119:
	.loc 2 1117 0
	lds r30,CDB
	lds r31,CDB+1
.LBB1120:
.LBB1121:
.LBB1122:
.LBB1123:
	.loc 3 111 0
	in r11,__SREG__
.LVL252:
.LBB1124:
.LBB1125:
	.loc 3 100 0
/* #APP */
 ;  100 "/home/user/Osek/OSEK-4/erika/src/ee_hal_internal.h" 1
	cli
 ;  0 "" 2
.LVL253:
/* #NOAPP */
.LBE1125:
.LBE1124:
.LBE1123:
.LBE1122:
.LBE1121:
.LBE1120:
.LBB1126:
.LBB1127:
	.loc 1 390 0
	ldi r24,lo8(40)
	ldi r25,0
	std Z+14,r25
	std Z+13,r24
.LVL254:
.LBE1127:
.LBE1126:
.LBB1128:
.LBB1129:
	.loc 1 407 0
	std Z+16,r15
	std Z+15,r14
.LVL255:
.LBE1129:
.LBE1128:
.LBB1130:
.LBB1131:
	.loc 1 422 0
	std Z+18,r13
	std Z+17,r12
.LVL256:
.LBE1131:
.LBE1130:
.LBB1132:
.LBB1133:
	.loc 1 437 0
	std Z+20,r17
	std Z+19,r16
.LBE1133:
.LBE1132:
	.loc 2 1128 0
	movw r22,r28
	movw r24,r30
	call osEE_call_error_hook
.LVL257:
.LBB1134:
.LBB1135:
.LBB1136:
.LBB1137:
	.loc 3 118 0
	.loc 3 119 0
	out __SREG__,r11
.LVL258:
.LBE1137:
.LBE1136:
.LBE1135:
.LBE1134:
.LBE1119:
	.loc 2 1136 0
	rjmp .L122
.LVL259:
.L130:
.LBB1138:
	.loc 2 1098 0
	ldi r28,lo8(8)
	ldi r29,0
	rjmp .L123
.LBE1138:
	.cfi_endproc
.LFE78:
	.size	SetRelAlarm, .-SetRelAlarm
	.section	.text.SetAbsAlarm,"ax",@progbits
.global	SetAbsAlarm
	.type	SetAbsAlarm, @function
SetAbsAlarm:
.LFB79:
	.loc 2 1146 0
	.cfi_startproc
.LVL260:
	push r11
.LCFI65:
	.cfi_def_cfa_offset 3
	.cfi_offset 11, -2
	push r12
.LCFI66:
	.cfi_def_cfa_offset 4
	.cfi_offset 12, -3
	push r13
.LCFI67:
	.cfi_def_cfa_offset 5
	.cfi_offset 13, -4
	push r14
.LCFI68:
	.cfi_def_cfa_offset 6
	.cfi_offset 14, -5
	push r15
.LCFI69:
	.cfi_def_cfa_offset 7
	.cfi_offset 15, -6
	push r16
.LCFI70:
	.cfi_def_cfa_offset 8
	.cfi_offset 16, -7
	push r17
.LCFI71:
	.cfi_def_cfa_offset 9
	.cfi_offset 17, -8
	push r28
.LCFI72:
	.cfi_def_cfa_offset 10
	.cfi_offset 28, -9
	push r29
.LCFI73:
	.cfi_def_cfa_offset 11
	.cfi_offset 29, -10
/* prologue: function */
/* frame size = 0 */
/* stack size = 9 */
.L__stack_usage = 9
	movw r12,r22
	movw r16,r20
.LVL261:
.LBB1139:
.LBB1140:
	.loc 1 565 0
	mov r14,r24
	mov r15,__zero_reg__
.LVL262:
.LBE1140:
.LBE1139:
	.loc 2 1156 0
	lds r24,KDB+20
	lds r25,KDB+20+1
.LVL263:
	cp r14,r24
	cpc r15,r25
	brsh .L141
.LBB1141:
	.loc 2 1161 0
	lds r30,KDB+18
	lds r31,KDB+18+1
	movw r24,r14
	lsl r24
	rol r25
	add r30,r24
	adc r31,r25
	ld r22,Z
	ldd r23,Z+1
.LVL264:
	.loc 2 1163 0
	movw r30,r22
	ldd r24,Z+2
	ldd r25,Z+3
.LVL265:
	.loc 2 1167 0
	movw r30,r24
	ldd r18,Z+2
	ldd r19,Z+3
	cp r18,r12
	cpc r19,r13
	brlo .L144
	.loc 2 1167 0 is_stmt 0 discriminator 1
	or r20,r21
	breq .L139
	.loc 2 1168 0 is_stmt 1
	ldd r20,Z+6
	ldd r21,Z+7
.LVL266:
	cp r16,r20
	cpc r17,r21
	brlo .L144
	.loc 2 1168 0 is_stmt 0 discriminator 1
	cp r18,r16
	cpc r19,r17
	brlo .L144
.L139:
.LBB1142:
.LBB1143:
.LBB1144:
.LBB1145:
.LBB1146:
	.loc 3 111 0 is_stmt 1
	in r11,__SREG__
.LVL267:
.LBB1147:
.LBB1148:
	.loc 3 100 0
/* #APP */
 ;  100 "/home/user/Osek/OSEK-4/erika/src/ee_hal_internal.h" 1
	cli
 ;  0 "" 2
.LVL268:
/* #NOAPP */
.LBE1148:
.LBE1147:
.LBE1146:
.LBE1145:
.LBE1144:
.LBE1143:
	.loc 2 1179 0
	movw r18,r16
	movw r20,r12
	call osEE_alarm_set_abs
.LVL269:
	movw r28,r24
.LVL270:
.LBB1149:
.LBB1150:
.LBB1151:
.LBB1152:
	.loc 3 118 0
	.loc 3 119 0
	out __SREG__,r11
.LBE1152:
.LBE1151:
.LBE1150:
.LBE1149:
.LBE1142:
.LBE1141:
	.loc 2 1186 0
	or r24,r25
	brne .L138
.LVL271:
.L137:
	.loc 2 1211 0
	movw r24,r28
/* epilogue start */
	pop r29
	pop r28
	pop r17
	pop r16
.LVL272:
	pop r15
	pop r14
.LVL273:
	pop r13
	pop r12
.LVL274:
	pop r11
	ret
.LVL275:
.L141:
	.loc 2 1157 0
	ldi r28,lo8(3)
	ldi r29,0
.L138:
.LBB1153:
	.loc 2 1191 0
	lds r30,CDB
	lds r31,CDB+1
.LBB1154:
.LBB1155:
.LBB1156:
.LBB1157:
	.loc 3 111 0
	in r11,__SREG__
.LVL276:
.LBB1158:
.LBB1159:
	.loc 3 100 0
/* #APP */
 ;  100 "/home/user/Osek/OSEK-4/erika/src/ee_hal_internal.h" 1
	cli
 ;  0 "" 2
.LVL277:
/* #NOAPP */
.LBE1159:
.LBE1158:
.LBE1157:
.LBE1156:
.LBE1155:
.LBE1154:
.LBB1160:
.LBB1161:
	.loc 1 390 0
	ldi r24,lo8(42)
	ldi r25,0
	std Z+14,r25
	std Z+13,r24
.LVL278:
.LBE1161:
.LBE1160:
.LBB1162:
.LBB1163:
	.loc 1 407 0
	std Z+16,r15
	std Z+15,r14
.LVL279:
.LBE1163:
.LBE1162:
.LBB1164:
.LBB1165:
	.loc 1 422 0
	std Z+18,r13
	std Z+17,r12
.LVL280:
.LBE1165:
.LBE1164:
.LBB1166:
.LBB1167:
	.loc 1 437 0
	std Z+20,r17
	std Z+19,r16
.LBE1167:
.LBE1166:
	.loc 2 1202 0
	movw r22,r28
	movw r24,r30
	call osEE_call_error_hook
.LVL281:
.LBB1168:
.LBB1169:
.LBB1170:
.LBB1171:
	.loc 3 118 0
	.loc 3 119 0
	out __SREG__,r11
.LVL282:
.LBE1171:
.LBE1170:
.LBE1169:
.LBE1168:
.LBE1153:
	.loc 2 1210 0
	rjmp .L137
.LVL283:
.L144:
.LBB1172:
	.loc 2 1172 0
	ldi r28,lo8(8)
	ldi r29,0
	rjmp .L138
.LBE1172:
	.cfi_endproc
.LFE79:
	.size	SetAbsAlarm, .-SetAbsAlarm
	.section	.text.CancelAlarm,"ax",@progbits
.global	CancelAlarm
	.type	CancelAlarm, @function
CancelAlarm:
.LFB80:
	.loc 2 1218 0
	.cfi_startproc
.LVL284:
	push r15
.LCFI74:
	.cfi_def_cfa_offset 3
	.cfi_offset 15, -2
	push r16
.LCFI75:
	.cfi_def_cfa_offset 4
	.cfi_offset 16, -3
	push r17
.LCFI76:
	.cfi_def_cfa_offset 5
	.cfi_offset 17, -4
	push r28
.LCFI77:
	.cfi_def_cfa_offset 6
	.cfi_offset 28, -5
	push r29
.LCFI78:
	.cfi_def_cfa_offset 7
	.cfi_offset 29, -6
/* prologue: function */
/* frame size = 0 */
/* stack size = 5 */
.L__stack_usage = 5
.LVL285:
.LBB1173:
.LBB1174:
	.loc 1 565 0
	mov r28,r24
	ldi r29,0
.LVL286:
.LBE1174:
.LBE1173:
	.loc 2 1228 0
	lds r24,KDB+20
	lds r25,KDB+20+1
.LVL287:
	cp r28,r24
	cpc r29,r25
	brsh .L154
.LBB1175:
	.loc 2 1232 0
	lds r30,KDB+18
	lds r31,KDB+18+1
	movw r24,r28
	lsl r24
	rol r25
	add r30,r24
	adc r31,r25
	ld r24,Z
	ldd r25,Z+1
.LVL288:
.LBB1176:
.LBB1177:
.LBB1178:
.LBB1179:
	.loc 3 111 0
	in r15,__SREG__
.LVL289:
.LBB1180:
.LBB1181:
	.loc 3 100 0
/* #APP */
 ;  100 "/home/user/Osek/OSEK-4/erika/src/ee_hal_internal.h" 1
	cli
 ;  0 "" 2
.LVL290:
/* #NOAPP */
.LBE1181:
.LBE1180:
.LBE1179:
.LBE1178:
.LBE1177:
.LBE1176:
	.loc 2 1236 0
	call osEE_alarm_cancel
.LVL291:
	movw r16,r24
.LVL292:
.LBB1182:
.LBB1183:
.LBB1184:
.LBB1185:
	.loc 3 118 0
	.loc 3 119 0
	out __SREG__,r15
.LBE1185:
.LBE1184:
.LBE1183:
.LBE1182:
.LBE1175:
	.loc 2 1242 0
	or r24,r25
	brne .L152
.LVL293:
.L151:
	.loc 2 1263 0
	movw r24,r16
/* epilogue start */
	pop r29
	pop r28
.LVL294:
	pop r17
	pop r16
	pop r15
	ret
.LVL295:
.L154:
	.loc 2 1229 0
	ldi r16,lo8(3)
	ldi r17,0
.L152:
.LBB1186:
	.loc 2 1247 0
	lds r30,CDB
	lds r31,CDB+1
.LBB1187:
.LBB1188:
.LBB1189:
.LBB1190:
	.loc 3 111 0
	in r15,__SREG__
.LVL296:
.LBB1191:
.LBB1192:
	.loc 3 100 0
/* #APP */
 ;  100 "/home/user/Osek/OSEK-4/erika/src/ee_hal_internal.h" 1
	cli
 ;  0 "" 2
.LVL297:
/* #NOAPP */
.LBE1192:
.LBE1191:
.LBE1190:
.LBE1189:
.LBE1188:
.LBE1187:
.LBB1193:
.LBB1194:
	.loc 1 390 0
	ldi r24,lo8(44)
	ldi r25,0
	std Z+14,r25
	std Z+13,r24
.LVL298:
.LBE1194:
.LBE1193:
.LBB1195:
.LBB1196:
	.loc 1 407 0
	std Z+16,r29
	std Z+15,r28
.LBE1196:
.LBE1195:
	.loc 2 1254 0
	movw r22,r16
	movw r24,r30
	call osEE_call_error_hook
.LVL299:
.LBB1197:
.LBB1198:
.LBB1199:
.LBB1200:
	.loc 3 118 0
	.loc 3 119 0
	out __SREG__,r15
.LVL300:
.LBE1200:
.LBE1199:
.LBE1198:
.LBE1197:
.LBE1186:
	.loc 2 1262 0
	rjmp .L151
	.cfi_endproc
.LFE80:
	.size	CancelAlarm, .-CancelAlarm
	.section	.text.GetAlarm,"ax",@progbits
.global	GetAlarm
	.type	GetAlarm, @function
GetAlarm:
.LFB81:
	.loc 2 1271 0
	.cfi_startproc
.LVL301:
	push r13
.LCFI79:
	.cfi_def_cfa_offset 3
	.cfi_offset 13, -2
	push r14
.LCFI80:
	.cfi_def_cfa_offset 4
	.cfi_offset 14, -3
	push r15
.LCFI81:
	.cfi_def_cfa_offset 5
	.cfi_offset 15, -4
	push r16
.LCFI82:
	.cfi_def_cfa_offset 6
	.cfi_offset 16, -5
	push r17
.LCFI83:
	.cfi_def_cfa_offset 7
	.cfi_offset 17, -6
	push r28
.LCFI84:
	.cfi_def_cfa_offset 8
	.cfi_offset 28, -7
	push r29
.LCFI85:
	.cfi_def_cfa_offset 9
	.cfi_offset 29, -8
/* prologue: function */
/* frame size = 0 */
/* stack size = 7 */
.L__stack_usage = 7
	movw r14,r22
.LVL302:
.LBB1201:
.LBB1202:
	.loc 1 565 0
	mov r16,r24
	ldi r17,0
.LVL303:
.LBE1202:
.LBE1201:
	.loc 2 1281 0
	lds r24,KDB+20
	lds r25,KDB+20+1
.LVL304:
	cp r16,r24
	cpc r17,r25
	brsh .L161
	.loc 2 1284 0
	cp r22,__zero_reg__
	cpc r23,__zero_reg__
	breq .L162
.LBB1203:
	.loc 2 1289 0
	lds r30,KDB+18
	lds r31,KDB+18+1
	movw r24,r16
	lsl r24
	rol r25
	add r30,r24
	adc r31,r25
	ld r24,Z
	ldd r25,Z+1
.LVL305:
.LBB1204:
.LBB1205:
.LBB1206:
.LBB1207:
	.loc 3 111 0
	in r13,__SREG__
.LVL306:
.LBB1208:
.LBB1209:
	.loc 3 100 0
/* #APP */
 ;  100 "/home/user/Osek/OSEK-4/erika/src/ee_hal_internal.h" 1
	cli
 ;  0 "" 2
.LVL307:
/* #NOAPP */
.LBE1209:
.LBE1208:
.LBE1207:
.LBE1206:
.LBE1205:
.LBE1204:
	.loc 2 1293 0
	call osEE_alarm_get
.LVL308:
	movw r28,r24
.LVL309:
.LBB1210:
.LBB1211:
.LBB1212:
.LBB1213:
	.loc 3 118 0
	.loc 3 119 0
	out __SREG__,r13
.LBE1213:
.LBE1212:
.LBE1211:
.LBE1210:
.LBE1203:
	.loc 2 1299 0
	or r24,r25
	brne .L159
.LVL310:
.L158:
	.loc 2 1322 0
	movw r24,r28
/* epilogue start */
	pop r29
	pop r28
	pop r17
	pop r16
.LVL311:
	pop r15
	pop r14
.LVL312:
	pop r13
	ret
.LVL313:
.L161:
	.loc 2 1282 0
	ldi r28,lo8(3)
	ldi r29,0
.L159:
.LBB1214:
	.loc 2 1304 0
	lds r30,CDB
	lds r31,CDB+1
.LBB1215:
.LBB1216:
.LBB1217:
.LBB1218:
	.loc 3 111 0
	in r13,__SREG__
.LVL314:
.LBB1219:
.LBB1220:
	.loc 3 100 0
/* #APP */
 ;  100 "/home/user/Osek/OSEK-4/erika/src/ee_hal_internal.h" 1
	cli
 ;  0 "" 2
.LVL315:
/* #NOAPP */
.LBE1220:
.LBE1219:
.LBE1218:
.LBE1217:
.LBE1216:
.LBE1215:
.LBB1221:
.LBB1222:
	.loc 1 390 0
	ldi r24,lo8(38)
	ldi r25,0
	std Z+14,r25
	std Z+13,r24
.LVL316:
.LBE1222:
.LBE1221:
.LBB1223:
.LBB1224:
	.loc 1 407 0
	std Z+16,r17
	std Z+15,r16
.LVL317:
.LBE1224:
.LBE1223:
.LBB1225:
.LBB1226:
	.loc 1 422 0
	std Z+18,r15
	std Z+17,r14
.LBE1226:
.LBE1225:
	.loc 2 1313 0
	movw r22,r28
	movw r24,r30
	call osEE_call_error_hook
.LVL318:
.LBB1227:
.LBB1228:
.LBB1229:
.LBB1230:
	.loc 3 118 0
	.loc 3 119 0
	out __SREG__,r13
.LVL319:
.LBE1230:
.LBE1229:
.LBE1228:
.LBE1227:
.LBE1214:
	.loc 2 1321 0
	rjmp .L158
.LVL320:
.L162:
	.loc 2 1285 0
	ldi r28,lo8(14)
	ldi r29,0
	rjmp .L159
	.cfi_endproc
.LFE81:
	.size	GetAlarm, .-GetAlarm
	.section	.text.GetAlarmBase,"ax",@progbits
.global	GetAlarmBase
	.type	GetAlarmBase, @function
GetAlarmBase:
.LFB82:
	.loc 2 1330 0
	.cfi_startproc
.LVL321:
	push r17
.LCFI86:
	.cfi_def_cfa_offset 3
	.cfi_offset 17, -2
	push r28
.LCFI87:
	.cfi_def_cfa_offset 4
	.cfi_offset 28, -3
	push r29
.LCFI88:
	.cfi_def_cfa_offset 5
	.cfi_offset 29, -4
/* prologue: function */
/* frame size = 0 */
/* stack size = 3 */
.L__stack_usage = 3
.LVL322:
.LBB1231:
.LBB1232:
	.loc 1 565 0
	mov r18,r24
	ldi r19,0
.LVL323:
.LBE1232:
.LBE1231:
	.loc 2 1340 0
	lds r24,KDB+20
	lds r25,KDB+20+1
.LVL324:
	cp r18,r24
	cpc r19,r25
	brsh .L169
	.loc 2 1343 0
	cp r22,__zero_reg__
	cpc r23,__zero_reg__
	breq .L170
.LVL325:
.LBB1233:
	.loc 2 1348 0
	lds r24,KDB+18
	lds r25,KDB+18+1
	lsl r18
	rol r19
.LVL326:
	add r18,r24
	adc r19,r25
	.loc 2 1352 0
	movw r26,r18
	ld r30,X+
	ld r31,X
	.loc 2 1354 0
	ldd __tmp_reg__,Z+2
	ldd r31,Z+3
	mov r30,__tmp_reg__
	ldi r24,lo8(6)
	adiw r30,2
	movw r26,r22
	0:
	ld r0,Z+
	st X+,r0
	dec r24
	brne 0b
.LVL327:
	.loc 2 1356 0
	ldi r29,0
	ldi r28,0
.LVL328:
.L166:
.LBE1233:
	.loc 2 1383 0
	movw r24,r28
/* epilogue start */
	pop r29
	pop r28
	pop r17
	ret
.LVL329:
.L169:
	.loc 2 1341 0
	ldi r28,lo8(3)
	ldi r29,0
.L167:
.LBB1234:
	.loc 2 1365 0
	lds r30,CDB
	lds r31,CDB+1
.LBB1235:
.LBB1236:
.LBB1237:
.LBB1238:
	.loc 3 111 0
	in r17,__SREG__
.LVL330:
.LBB1239:
.LBB1240:
	.loc 3 100 0
/* #APP */
 ;  100 "/home/user/Osek/OSEK-4/erika/src/ee_hal_internal.h" 1
	cli
 ;  0 "" 2
.LVL331:
/* #NOAPP */
.LBE1240:
.LBE1239:
.LBE1238:
.LBE1237:
.LBE1236:
.LBE1235:
.LBB1241:
.LBB1242:
	.loc 1 390 0
	ldi r24,lo8(36)
	ldi r25,0
	std Z+14,r25
	std Z+13,r24
.LVL332:
.LBE1242:
.LBE1241:
.LBB1243:
.LBB1244:
	.loc 1 407 0
	std Z+16,r19
	std Z+15,r18
.LVL333:
.LBE1244:
.LBE1243:
.LBB1245:
.LBB1246:
	.loc 1 422 0
	std Z+18,r23
	std Z+17,r22
.LBE1246:
.LBE1245:
	.loc 2 1374 0
	movw r22,r28
.LVL334:
	movw r24,r30
	call osEE_call_error_hook
.LVL335:
.LBB1247:
.LBB1248:
.LBB1249:
.LBB1250:
	.loc 3 118 0
	.loc 3 119 0
	out __SREG__,r17
.LVL336:
.LBE1250:
.LBE1249:
.LBE1248:
.LBE1247:
.LBE1234:
	.loc 2 1382 0
	rjmp .L166
.LVL337:
.L170:
	.loc 2 1344 0
	ldi r28,lo8(14)
	ldi r29,0
	rjmp .L167
	.cfi_endproc
.LFE82:
	.size	GetAlarmBase, .-GetAlarmBase
	.section	.text.WaitEvent,"ax",@progbits
.global	WaitEvent
	.type	WaitEvent, @function
WaitEvent:
.LFB83:
	.loc 2 1393 0
	.cfi_startproc
.LVL338:
	push r9
.LCFI89:
	.cfi_def_cfa_offset 3
	.cfi_offset 9, -2
	push r10
.LCFI90:
	.cfi_def_cfa_offset 4
	.cfi_offset 10, -3
	push r11
.LCFI91:
	.cfi_def_cfa_offset 5
	.cfi_offset 11, -4
	push r12
.LCFI92:
	.cfi_def_cfa_offset 6
	.cfi_offset 12, -5
	push r13
.LCFI93:
	.cfi_def_cfa_offset 7
	.cfi_offset 13, -6
	push r14
.LCFI94:
	.cfi_def_cfa_offset 8
	.cfi_offset 14, -7
	push r15
.LCFI95:
	.cfi_def_cfa_offset 9
	.cfi_offset 15, -8
	push r16
.LCFI96:
	.cfi_def_cfa_offset 10
	.cfi_offset 16, -9
	push r17
.LCFI97:
	.cfi_def_cfa_offset 11
	.cfi_offset 17, -10
	push r28
.LCFI98:
	.cfi_def_cfa_offset 12
	.cfi_offset 28, -11
	push r29
.LCFI99:
	.cfi_def_cfa_offset 13
	.cfi_offset 29, -12
	rcall .
.LCFI100:
	.cfi_def_cfa_offset 15
	in r28,__SP_L__
	in r29,__SP_H__
.LCFI101:
	.cfi_def_cfa_register 28
/* prologue: function */
/* frame size = 2 */
/* stack size = 13 */
.L__stack_usage = 13
	movw r12,r24
	.loc 2 1398 0
	lds r14,CDB
	lds r15,CDB+1
.LVL339:
	.loc 2 1416 0
	movw r24,r14
.LVL340:
	call osEE_check_disableint
.LVL341:
	or r24,r25
	breq .+2
	rjmp .L174
	.loc 2 1400 0
	movw r26,r14
	ld r10,X+
	ld r11,X
	.loc 2 1419 0
	movw r30,r10
	ldd r24,Z+7
	ldd r25,Z+8
	.loc 2 1427 0
	ldi r16,lo8(2)
	ldi r17,0
	.loc 2 1419 0
	cpi r24,2
	cpc r25,__zero_reg__
	brsh .L172
	.loc 2 1402 0
	ldd r16,Z+4
	ldd r17,Z+5
	.loc 2 1430 0
	movw r26,r16
	adiw r26,4
	ld r18,X+
	ld r19,X
	sbiw r26,4+1
	or r18,r19
	breq .+2
	rjmp .L176
	.loc 2 1440 0
	sbiw r24,1
	breq .+2
	rjmp .L177
	.loc 2 1446 0
	adiw r26,8
	ld r24,X+
	ld r25,X
	and r24,r12
	and r25,r13
	or r24,r25
	brne .L178
.LBB1251:
.LBB1252:
.LBB1253:
.LBB1254:
.LBB1255:
	.loc 3 111 0
	in r9,__SREG__
.LVL342:
.LBB1256:
.LBB1257:
	.loc 3 100 0
/* #APP */
 ;  100 "/home/user/Osek/OSEK-4/erika/src/ee_hal_internal.h" 1
	cli
 ;  0 "" 2
.LVL343:
/* #NOAPP */
.LBE1257:
.LBE1256:
.LBE1255:
.LBE1254:
.LBE1253:
.LBE1252:
	.loc 2 1453 0
	movw r30,r16
	std Z+7,r13
	std Z+6,r12
.LVL344:
	.loc 2 1458 0
	movw r20,r28
	subi r20,-1
	sbci r21,-1
	ldi r22,lo8(CDB)
	ldi r23,hi8(CDB)
	ldi r24,lo8(KDB)
	ldi r25,hi8(KDB)
	call osEE_scheduler_task_block_current
.LVL345:
	.loc 2 1463 0
	ldd r30,Y+1
	ldd r31,Y+2
.LVL346:
.LBB1258:
.LBB1259:
	.loc 5 96 0
	movw r26,r14
	adiw r26,4
	ld r18,X+
	ld r19,X
	sbiw r26,4+1
	std Z+1,r19
	st Z,r18
	.loc 5 97 0
	adiw r26,4+1
	st X,r31
	st -X,r30
	sbiw r26,4
.LVL347:
.LBE1259:
.LBE1258:
	.loc 2 1467 0
	movw r22,r24
	movw r24,r10
.LVL348:
	call osEE_change_context_from_running
.LVL349:
	.loc 2 1470 0
	movw r30,r16
	std Z+7,__zero_reg__
	std Z+6,__zero_reg__
.LBB1260:
.LBB1261:
.LBB1262:
.LBB1263:
	.loc 3 118 0
	.loc 3 119 0
	out __SREG__,r9
.LVL350:
.L178:
.LBE1263:
.LBE1262:
.LBE1261:
.LBE1260:
.LBE1251:
	.loc 2 1476 0
	ldi r17,0
	ldi r16,0
.LVL351:
	.loc 2 1495 0
	rjmp .L171
.LVL352:
.L174:
	.loc 2 1417 0
	ldi r16,lo8(12)
	ldi r17,0
.L172:
.LBB1264:
.LBB1265:
.LBB1266:
.LBB1267:
.LBB1268:
	.loc 3 111 0
	in r11,__SREG__
.LVL353:
.LBB1269:
.LBB1270:
	.loc 3 100 0
/* #APP */
 ;  100 "/home/user/Osek/OSEK-4/erika/src/ee_hal_internal.h" 1
	cli
 ;  0 "" 2
.LVL354:
/* #NOAPP */
.LBE1270:
.LBE1269:
.LBE1268:
.LBE1267:
.LBE1266:
.LBE1265:
.LBB1271:
.LBB1272:
	.loc 1 390 0
	ldi r24,lo8(34)
	ldi r25,0
	movw r26,r14
	adiw r26,13+1
	st X,r25
	st -X,r24
	sbiw r26,13
.LVL355:
.LBE1272:
.LBE1271:
.LBB1273:
.LBB1274:
	.loc 1 407 0
	adiw r26,15+1
	st X,r13
	st -X,r12
	sbiw r26,15
.LBE1274:
.LBE1273:
	.loc 2 1488 0
	movw r22,r16
	movw r24,r14
	call osEE_call_error_hook
.LVL356:
.LBB1275:
.LBB1276:
.LBB1277:
.LBB1278:
	.loc 3 118 0
	.loc 3 119 0
	out __SREG__,r11
.LVL357:
.L171:
.LBE1278:
.LBE1277:
.LBE1276:
.LBE1275:
.LBE1264:
	.loc 2 1496 0
	movw r24,r16
/* epilogue start */
	pop __tmp_reg__
	pop __tmp_reg__
	pop r29
	pop r28
	pop r17
	pop r16
	pop r15
	pop r14
	pop r13
	pop r12
.LVL358:
	pop r11
	pop r10
	pop r9
	ret
.LVL359:
.L176:
	.loc 2 1437 0
	ldi r16,lo8(6)
	ldi r17,0
	rjmp .L172
.L177:
	.loc 2 1441 0
	ldi r16,lo8(1)
	ldi r17,0
	rjmp .L172
	.cfi_endproc
.LFE83:
	.size	WaitEvent, .-WaitEvent
	.section	.text.SetEvent,"ax",@progbits
.global	SetEvent
	.type	SetEvent, @function
SetEvent:
.LFB84:
	.loc 2 1504 0
	.cfi_startproc
.LVL360:
	push r13
.LCFI102:
	.cfi_def_cfa_offset 3
	.cfi_offset 13, -2
	push r14
.LCFI103:
	.cfi_def_cfa_offset 4
	.cfi_offset 14, -3
	push r15
.LCFI104:
	.cfi_def_cfa_offset 5
	.cfi_offset 15, -4
	push r16
.LCFI105:
	.cfi_def_cfa_offset 6
	.cfi_offset 16, -5
	push r17
.LCFI106:
	.cfi_def_cfa_offset 7
	.cfi_offset 17, -6
	push r28
.LCFI107:
	.cfi_def_cfa_offset 8
	.cfi_offset 28, -7
	push r29
.LCFI108:
	.cfi_def_cfa_offset 9
	.cfi_offset 29, -8
/* prologue: function */
/* frame size = 0 */
/* stack size = 7 */
.L__stack_usage = 7
	mov r17,r24
	movw r14,r22
	.loc 2 1513 0
	lds r28,CDB
	lds r29,CDB+1
.LVL361:
	.loc 2 1530 0
	movw r24,r28
.LVL362:
	call osEE_check_disableint
.LVL363:
	mov r18,r17
	ldi r19,0
	or r24,r25
	breq .+2
	rjmp .L187
	.loc 2 1533 0
	ld r30,Y
	ldd r31,Y+1
.LVL364:
	ldd r24,Z+7
	ldd r25,Z+8
	sbiw r24,3
	brlo .+2
	rjmp .L188
.LVL365:
	.loc 2 1547 0
	lds r24,KDB+6
	lds r25,KDB+6+1
	cp r18,r24
	cpc r19,r25
	brlo .+2
	rjmp .L189
.LBB1279:
	.loc 2 1551 0
	lds r30,KDB+2
	lds r31,KDB+2+1
.LVL366:
	movw r24,r18
	lsl r24
	rol r25
	add r30,r24
	adc r31,r25
	ld r26,Z
	ldd r27,Z+1
.LVL367:
	.loc 2 1553 0
	adiw r26,4
	ld r30,X+
	ld r31,X
	sbiw r26,4+1
.LVL368:
.LBB1280:
.LBB1281:
.LBB1282:
.LBB1283:
	.loc 3 111 0
	in r17,__SREG__
.LVL369:
.LBB1284:
.LBB1285:
	.loc 3 100 0
/* #APP */
 ;  100 "/home/user/Osek/OSEK-4/erika/src/ee_hal_internal.h" 1
	cli
 ;  0 "" 2
.LVL370:
/* #NOAPP */
.LBE1285:
.LBE1284:
.LBE1283:
.LBE1282:
.LBE1281:
.LBE1280:
	.loc 2 1563 0
	adiw r26,7
	ld r24,X+
	ld r25,X
	sbiw r26,7+1
	sbiw r24,1
	breq .L181
.LVL371:
.LBB1286:
.LBB1287:
.LBB1288:
.LBB1289:
	.loc 3 118 0
	.loc 3 119 0
	out __SREG__,r17
.LVL372:
.LBE1289:
.LBE1288:
.LBE1287:
.LBE1286:
	.loc 2 1566 0
	ldi r16,lo8(1)
	ldi r17,0
.LVL373:
.L180:
.LBE1279:
.LBB1301:
.LBB1302:
.LBB1303:
.LBB1304:
.LBB1305:
	.loc 3 111 0
	in r13,__SREG__
.LVL374:
.LBB1306:
.LBB1307:
	.loc 3 100 0
/* #APP */
 ;  100 "/home/user/Osek/OSEK-4/erika/src/ee_hal_internal.h" 1
	cli
 ;  0 "" 2
.LVL375:
/* #NOAPP */
.LBE1307:
.LBE1306:
.LBE1305:
.LBE1304:
.LBE1303:
.LBE1302:
.LBB1308:
.LBB1309:
	.loc 1 390 0
	ldi r24,lo8(28)
	ldi r25,0
	std Y+14,r25
	std Y+13,r24
.LVL376:
.LBE1309:
.LBE1308:
.LBB1310:
.LBB1311:
	.loc 1 407 0
	std Y+16,r19
	std Y+15,r18
.LVL377:
.LBE1311:
.LBE1310:
.LBB1312:
.LBB1313:
	.loc 1 422 0
	std Y+18,r15
	std Y+17,r14
.LBE1313:
.LBE1312:
	.loc 2 1611 0
	movw r22,r16
	movw r24,r28
	call osEE_call_error_hook
.LVL378:
.LBB1314:
.LBB1315:
.LBB1316:
.LBB1317:
	.loc 3 118 0
	.loc 3 119 0
	out __SREG__,r13
.LVL379:
.LBE1317:
.LBE1316:
.LBE1315:
.LBE1314:
.LBE1301:
	.loc 2 1619 0
	rjmp .L179
.LVL380:
.L181:
.LBB1318:
	.loc 2 1568 0
	ldd r20,Z+2
	ldd r21,Z+3
	cp r20,__zero_reg__
	cpc r21,__zero_reg__
	brne .L182
.LVL381:
.LBB1290:
.LBB1291:
.LBB1292:
.LBB1293:
	.loc 3 118 0
	.loc 3 119 0
	out __SREG__,r17
.LVL382:
.LBE1293:
.LBE1292:
.LBE1291:
.LBE1290:
	.loc 2 1571 0
	ldi r16,lo8(7)
	ldi r17,0
	rjmp .L180
.LVL383:
.L182:
	.loc 2 1576 0
	ldd r24,Z+8
	ldd r25,Z+9
	or r24,r14
	or r25,r15
	std Z+9,r25
	std Z+8,r24
	.loc 2 1578 0
	ldd r24,Z+6
	ldd r25,Z+7
	and r14,r24
.LVL384:
	and r15,r25
	or r14,r15
	breq .L184
	.loc 2 1578 0 is_stmt 0 discriminator 1
	cpi r20,3
	cpc r21,__zero_reg__
	brne .L184
.LVL385:
.LBB1294:
.LBB1295:
.LBB1296:
	.loc 5 82 0 is_stmt 1
	ldd r30,Y+4
	ldd r31,Y+5
.LVL386:
	.loc 5 83 0
	ld r24,Z
	ldd r25,Z+1
	std Y+5,r25
	std Y+4,r24
	.loc 5 84 0
	std Z+1,__zero_reg__
	st Z,__zero_reg__
.LVL387:
.LBE1296:
.LBE1295:
	.loc 2 1584 0
	std Z+3,r27
	std Z+2,r26
	.loc 2 1587 0
	movw r20,r30
	ldi r22,lo8(CDB)
	ldi r23,hi8(CDB)
	ldi r24,lo8(KDB)
	ldi r25,hi8(KDB)
	call osEE_scheduler_task_unblocked
.LVL388:
	or r24,r25
	breq .L184
	.loc 2 1589 0
	ldi r22,lo8(CDB)
	ldi r23,hi8(CDB)
	ldi r24,lo8(KDB)
	ldi r25,hi8(KDB)
	call osEE_scheduler_task_preemption_point
.LVL389:
.L184:
.LBE1294:
.LBB1297:
.LBB1298:
.LBB1299:
.LBB1300:
	.loc 3 118 0
	.loc 3 119 0
	out __SREG__,r17
.LVL390:
.LBE1300:
.LBE1299:
.LBE1298:
.LBE1297:
	.loc 2 1596 0
	ldi r17,0
	ldi r16,0
.LVL391:
.L179:
.LBE1318:
	.loc 2 1620 0
	movw r24,r16
/* epilogue start */
	pop r29
	pop r28
.LVL392:
	pop r17
	pop r16
	pop r15
	pop r14
	pop r13
	ret
.LVL393:
.L187:
	.loc 2 1531 0
	ldi r16,lo8(12)
	ldi r17,0
	rjmp .L180
.LVL394:
.L188:
	.loc 2 1541 0
	ldi r16,lo8(2)
	ldi r17,0
	rjmp .L180
.L189:
	.loc 2 1548 0
	ldi r16,lo8(3)
	ldi r17,0
	rjmp .L180
	.cfi_endproc
.LFE84:
	.size	SetEvent, .-SetEvent
	.section	.text.GetEvent,"ax",@progbits
.global	GetEvent
	.type	GetEvent, @function
GetEvent:
.LFB85:
	.loc 2 1628 0
	.cfi_startproc
.LVL395:
	push r13
.LCFI109:
	.cfi_def_cfa_offset 3
	.cfi_offset 13, -2
	push r14
.LCFI110:
	.cfi_def_cfa_offset 4
	.cfi_offset 14, -3
	push r15
.LCFI111:
	.cfi_def_cfa_offset 5
	.cfi_offset 15, -4
	push r16
.LCFI112:
	.cfi_def_cfa_offset 6
	.cfi_offset 16, -5
	push r17
.LCFI113:
	.cfi_def_cfa_offset 7
	.cfi_offset 17, -6
	push r28
.LCFI114:
	.cfi_def_cfa_offset 8
	.cfi_offset 28, -7
	push r29
.LCFI115:
	.cfi_def_cfa_offset 9
	.cfi_offset 29, -8
/* prologue: function */
/* frame size = 0 */
/* stack size = 7 */
.L__stack_usage = 7
	mov r28,r24
	movw r14,r22
	.loc 2 1637 0
	lds r16,CDB
	lds r17,CDB+1
.LVL396:
	.loc 2 1657 0
	movw r24,r16
.LVL397:
	call osEE_check_disableint
.LVL398:
	mov r18,r28
	ldi r19,0
	or r24,r25
	brne .L196
	.loc 2 1660 0
	movw r26,r16
	ld r30,X+
	ld r31,X
.LVL399:
	ldd r24,Z+7
	ldd r25,Z+8
	sbiw r24,3
	brlo .+2
	rjmp .L197
.LVL400:
	.loc 2 1676 0
	lds r24,KDB+6
	lds r25,KDB+6+1
	cp r18,r24
	cpc r19,r25
	brlo .+2
	rjmp .L198
.LBB1319:
	.loc 2 1681 0
	lds r30,KDB+2
	lds r31,KDB+2+1
.LVL401:
	movw r24,r18
	lsl r24
	rol r25
	add r30,r24
	adc r31,r25
	ld __tmp_reg__,Z+
	ld r31,Z
	mov r30,__tmp_reg__
.LVL402:
	.loc 2 1687 0
	ldd r24,Z+7
	ldd r25,Z+8
	.loc 2 1688 0
	ldi r28,lo8(1)
	ldi r29,0
.LVL403:
	.loc 2 1687 0
	sbiw r24,1
	brne .L194
	.loc 2 1683 0
	ldd __tmp_reg__,Z+4
	ldd r31,Z+5
	mov r30,__tmp_reg__
.LVL404:
	.loc 2 1690 0
	ldd r24,Z+2
	ldd r25,Z+3
	or r24,r25
	breq .L200
	.loc 2 1694 0
	cp r14,__zero_reg__
	cpc r15,__zero_reg__
	breq .L201
	.loc 2 1698 0
	ldd r24,Z+8
	ldd r25,Z+9
	movw r30,r14
.LVL405:
	std Z+1,r25
	st Z,r24
.LVL406:
	.loc 2 1700 0
	ldi r29,0
	ldi r28,0
.LVL407:
.L193:
.LBE1319:
	.loc 2 1724 0
	movw r24,r28
/* epilogue start */
	pop r29
	pop r28
	pop r17
	pop r16
.LVL408:
	pop r15
	pop r14
.LVL409:
	pop r13
	ret
.LVL410:
.L196:
	.loc 2 1658 0
	ldi r28,lo8(12)
	ldi r29,0
.L194:
.LBB1320:
.LBB1321:
.LBB1322:
.LBB1323:
.LBB1324:
	.loc 3 111 0
	in r13,__SREG__
.LVL411:
.LBB1325:
.LBB1326:
	.loc 3 100 0
/* #APP */
 ;  100 "/home/user/Osek/OSEK-4/erika/src/ee_hal_internal.h" 1
	cli
 ;  0 "" 2
.LVL412:
/* #NOAPP */
.LBE1326:
.LBE1325:
.LBE1324:
.LBE1323:
.LBE1322:
.LBE1321:
.LBB1327:
.LBB1328:
	.loc 1 390 0
	ldi r24,lo8(32)
	ldi r25,0
	movw r26,r16
	adiw r26,13+1
	st X,r25
	st -X,r24
	sbiw r26,13
.LVL413:
.LBE1328:
.LBE1327:
.LBB1329:
.LBB1330:
	.loc 1 407 0
	adiw r26,15+1
	st X,r19
	st -X,r18
	sbiw r26,15
.LVL414:
.LBE1330:
.LBE1329:
.LBB1331:
.LBB1332:
	.loc 1 422 0
	adiw r26,17+1
	st X,r15
	st -X,r14
	sbiw r26,17
.LBE1332:
.LBE1331:
	.loc 2 1715 0
	movw r22,r28
	movw r24,r16
	call osEE_call_error_hook
.LVL415:
.LBB1333:
.LBB1334:
.LBB1335:
.LBB1336:
	.loc 3 118 0
	.loc 3 119 0
	out __SREG__,r13
.LVL416:
.LBE1336:
.LBE1335:
.LBE1334:
.LBE1333:
.LBE1320:
	.loc 2 1723 0
	rjmp .L193
.LVL417:
.L197:
	.loc 2 1670 0
	ldi r28,lo8(2)
	ldi r29,0
	rjmp .L194
.L198:
	.loc 2 1677 0
	ldi r28,lo8(3)
	ldi r29,0
	rjmp .L194
.LVL418:
.L200:
.LBB1337:
	.loc 2 1691 0
	ldi r28,lo8(7)
	ldi r29,0
	rjmp .L194
.L201:
	.loc 2 1695 0
	ldi r28,lo8(14)
	ldi r29,0
	rjmp .L194
.LBE1337:
	.cfi_endproc
.LFE85:
	.size	GetEvent, .-GetEvent
	.section	.text.ClearEvent,"ax",@progbits
.global	ClearEvent
	.type	ClearEvent, @function
ClearEvent:
.LFB86:
	.loc 2 1731 0
	.cfi_startproc
.LVL419:
	push r13
.LCFI116:
	.cfi_def_cfa_offset 3
	.cfi_offset 13, -2
	push r14
.LCFI117:
	.cfi_def_cfa_offset 4
	.cfi_offset 14, -3
	push r15
.LCFI118:
	.cfi_def_cfa_offset 5
	.cfi_offset 15, -4
	push r16
.LCFI119:
	.cfi_def_cfa_offset 6
	.cfi_offset 16, -5
	push r17
.LCFI120:
	.cfi_def_cfa_offset 7
	.cfi_offset 17, -6
	push r28
.LCFI121:
	.cfi_def_cfa_offset 8
	.cfi_offset 28, -7
	push r29
.LCFI122:
	.cfi_def_cfa_offset 9
	.cfi_offset 29, -8
/* prologue: function */
/* frame size = 0 */
/* stack size = 7 */
.L__stack_usage = 7
	movw r14,r24
	.loc 2 1736 0
	lds r16,CDB
	lds r17,CDB+1
.LVL420:
	.loc 2 1754 0
	movw r24,r16
.LVL421:
	call osEE_check_disableint
.LVL422:
	or r24,r25
	brne .L205
	.loc 2 1738 0
	movw r26,r16
	ld r30,X+
	ld r31,X
	.loc 2 1757 0
	ldd r24,Z+7
	ldd r25,Z+8
	.loc 2 1765 0
	ldi r28,lo8(2)
	ldi r29,0
	.loc 2 1757 0
	cpi r24,2
	cpc r25,__zero_reg__
	brsh .L203
	.loc 2 1768 0
	ldi r28,lo8(1)
	ldi r29,0
	.loc 2 1767 0
	sbiw r24,1
	brne .L203
	.loc 2 1740 0
	ldd __tmp_reg__,Z+4
	ldd r31,Z+5
	mov r30,__tmp_reg__
	.loc 2 1773 0
	com r14
	com r15
.LVL423:
	ldd r24,Z+8
	ldd r25,Z+9
	and r14,r24
.LVL424:
	and r15,r25
	std Z+9,r15
	std Z+8,r14
.LVL425:
	.loc 2 1775 0
	ldi r29,0
	ldi r28,0
.LVL426:
.L202:
	.loc 2 1794 0
	movw r24,r28
/* epilogue start */
	pop r29
	pop r28
	pop r17
	pop r16
	pop r15
	pop r14
	pop r13
	ret
.LVL427:
.L205:
	.loc 2 1755 0
	ldi r28,lo8(12)
	ldi r29,0
.L203:
.LBB1338:
.LBB1339:
.LBB1340:
.LBB1341:
.LBB1342:
	.loc 3 111 0
	in r13,__SREG__
.LVL428:
.LBB1343:
.LBB1344:
	.loc 3 100 0
/* #APP */
 ;  100 "/home/user/Osek/OSEK-4/erika/src/ee_hal_internal.h" 1
	cli
 ;  0 "" 2
.LVL429:
/* #NOAPP */
.LBE1344:
.LBE1343:
.LBE1342:
.LBE1341:
.LBE1340:
.LBE1339:
.LBB1345:
.LBB1346:
	.loc 1 390 0
	ldi r24,lo8(30)
	ldi r25,0
	movw r30,r16
	std Z+14,r25
	std Z+13,r24
.LVL430:
.LBE1346:
.LBE1345:
.LBB1347:
.LBB1348:
	.loc 1 407 0
	std Z+16,r15
	std Z+15,r14
.LBE1348:
.LBE1347:
	.loc 2 1786 0
	movw r22,r28
	movw r24,r16
	call osEE_call_error_hook
.LVL431:
.LBB1349:
.LBB1350:
.LBB1351:
.LBB1352:
	.loc 3 118 0
	.loc 3 119 0
	out __SREG__,r13
.LVL432:
.LBE1352:
.LBE1351:
.LBE1350:
.LBE1349:
.LBE1338:
	.loc 2 1793 0
	rjmp .L202
	.cfi_endproc
.LFE86:
	.size	ClearEvent, .-ClearEvent
	.section	.text.osEE_get_service_id,"ax",@progbits
.global	osEE_get_service_id
	.type	osEE_get_service_id, @function
osEE_get_service_id:
.LFB87:
	.loc 2 1803 0
	.cfi_startproc
/* prologue: function */
/* frame size = 0 */
/* stack size = 0 */
.L__stack_usage = 0
	.loc 2 1809 0
	lds r30,CDB
	lds r31,CDB+1
	.loc 2 1811 0
	ldd r24,Z+13
	ldd r25,Z+14
/* epilogue start */
	ret
	.cfi_endproc
.LFE87:
	.size	osEE_get_service_id, .-osEE_get_service_id
	.section	.text.osEE_get_api_param1,"ax",@progbits
.global	osEE_get_api_param1
	.type	osEE_get_api_param1, @function
osEE_get_api_param1:
.LFB88:
	.loc 2 1818 0
	.cfi_startproc
/* prologue: function */
/* frame size = 0 */
/* stack size = 0 */
.L__stack_usage = 0
	.loc 2 1819 0
	lds r30,CDB
	lds r31,CDB+1
	.loc 2 1820 0
	ldd r24,Z+15
	ldd r25,Z+16
/* epilogue start */
	ret
	.cfi_endproc
.LFE88:
	.size	osEE_get_api_param1, .-osEE_get_api_param1
	.section	.text.osEE_get_api_param2,"ax",@progbits
.global	osEE_get_api_param2
	.type	osEE_get_api_param2, @function
osEE_get_api_param2:
.LFB89:
	.loc 2 1826 0
	.cfi_startproc
/* prologue: function */
/* frame size = 0 */
/* stack size = 0 */
.L__stack_usage = 0
	.loc 2 1827 0
	lds r30,CDB
	lds r31,CDB+1
	.loc 2 1828 0
	ldd r24,Z+17
	ldd r25,Z+18
/* epilogue start */
	ret
	.cfi_endproc
.LFE89:
	.size	osEE_get_api_param2, .-osEE_get_api_param2
	.section	.text.osEE_get_api_param3,"ax",@progbits
.global	osEE_get_api_param3
	.type	osEE_get_api_param3, @function
osEE_get_api_param3:
.LFB90:
	.loc 2 1834 0
	.cfi_startproc
/* prologue: function */
/* frame size = 0 */
/* stack size = 0 */
.L__stack_usage = 0
	.loc 2 1835 0
	lds r30,CDB
	lds r31,CDB+1
	.loc 2 1836 0
	ldd r24,Z+19
	ldd r25,Z+20
/* epilogue start */
	ret
	.cfi_endproc
.LFE90:
	.size	osEE_get_api_param3, .-osEE_get_api_param3
	.section	.text.GetISRID,"ax",@progbits
.global	GetISRID
	.type	GetISRID, @function
GetISRID:
.LFB91:
	.loc 2 1844 0
	.cfi_startproc
/* prologue: function */
/* frame size = 0 */
/* stack size = 0 */
.L__stack_usage = 0
.LBB1353:
.LBB1354:
	.loc 1 92 0
	lds r30,CDB
	lds r31,CDB+1
	ld __tmp_reg__,Z+
	ld r31,Z
	mov r30,__tmp_reg__
.LBE1354:
.LBE1353:
	.loc 2 1849 0
	ldd r24,Z+7
	ldd r25,Z+8
	sbiw r24,2
	brne .L214
	.loc 2 1850 0
	ldd r24,Z+6
.LVL433:
	ret
.LVL434:
.L214:
	.loc 2 1852 0
	ldi r24,lo8(-1)
.LVL435:
/* epilogue start */
	.loc 2 1856 0
	ret
	.cfi_endproc
.LFE91:
	.size	GetISRID, .-GetISRID
	.text
.Letext0:
	.file 6 "/home/user/arduino-1.8.15/hardware/tools/avr/avr/include/stdint.h"
	.file 7 "/home/user/Osek/OSEK-4/erika/inc/ee_platform_types.h"
	.file 8 "/home/user/Osek/OSEK-4/erika/inc/ee_hal_internal_types.h"
	.file 9 "/home/user/Osek/OSEK-4/erika/inc/ee_api_types.h"
	.file 10 "/home/user/Osek/OSEK-4/erika/inc/ee_kernel_types.h"
	.file 11 "/home/user/Osek/OSEK-4/erika/inc/ee_get_kernel_and_core.h"
	.file 12 "/home/user/Osek/OSEK-4/erika/src/ee_scheduler.h"
	.file 13 "/home/user/Osek/OSEK-4/erika/inc/ee_oo_api_osek.h"