	.file	"ee_oo_api_osek.c"
__SP_H__ = 0x3e
__SP_L__ = 0x3d
__SREG__ = 0x3f
__tmp_reg__ = 0
__zero_reg__ = 1
	.text
.Ltext0:
	.cfi_sections	.debug_frame
	.section	.text.DisableAllInterrupts,"ax",@progbits
.global	DisableAllInterrupts
	.type	DisableAllInterrupts, @function
DisableAllInterrupts:
.LFB59:
	.file 1 "/home/user/Osek/Test-LDR/erika/src/ee_oo_api_osek.c"
	.loc 1 67 0
	.cfi_startproc
/* prologue: function */
/* frame size = 0 */
/* stack size = 0 */
.L__stack_usage = 0
	.loc 1 69 0
	lds r30,CDB
	lds r31,CDB+1
.LBB346:
.LBB347:
	.file 2 "/home/user/Osek/Test-LDR/erika/src/ee_hal_internal.h"
	.loc 2 100 0
/* #APP */
 ;  100 "/home/user/Osek/Test-LDR/erika/src/ee_hal_internal.h" 1
	cli
 ;  0 "" 2
.LVL0:
/* #NOAPP */
.LBE347:
.LBE346:
	.loc 1 73 0
	ldi r24,lo8(1)
	std Z+17,r24
.LVL1:
/* epilogue start */
	.loc 1 76 0
	ret
	.cfi_endproc
.LFE59:
	.size	DisableAllInterrupts, .-DisableAllInterrupts
	.section	.text.EnableAllInterrupts,"ax",@progbits
.global	EnableAllInterrupts
	.type	EnableAllInterrupts, @function
EnableAllInterrupts:
.LFB60:
	.loc 1 83 0
	.cfi_startproc
/* prologue: function */
/* frame size = 0 */
/* stack size = 0 */
.L__stack_usage = 0
	.loc 1 90 0
	lds r30,CDB
	lds r31,CDB+1
.LVL2:
	.loc 1 94 0
	ldd r24,Z+17
	tst r24
	breq .L2
	.loc 1 95 0
	std Z+17,__zero_reg__
.LBB348:
.LBB349:
	.loc 2 105 0
/* #APP */
 ;  105 "/home/user/Osek/Test-LDR/erika/src/ee_hal_internal.h" 1
	sei
 ;  0 "" 2
.LVL3:
/* #NOAPP */
.L2:
/* epilogue start */
.LBE349:
.LBE348:
	.loc 1 102 0
	ret
	.cfi_endproc
.LFE60:
	.size	EnableAllInterrupts, .-EnableAllInterrupts
	.section	.text.SuspendAllInterrupts,"ax",@progbits
.global	SuspendAllInterrupts
	.type	SuspendAllInterrupts, @function
SuspendAllInterrupts:
.LFB61:
	.loc 1 109 0
	.cfi_startproc
/* prologue: function */
/* frame size = 0 */
/* stack size = 0 */
.L__stack_usage = 0
	.loc 1 111 0
	lds r30,CDB
	lds r31,CDB+1
.LVL4:
	.loc 1 115 0
	ldd r24,Z+15
	cpse r24,__zero_reg__
	rjmp .L8
.LBB350:
.LBB351:
.LBB352:
	.loc 2 111 0
	in r24,__SREG__
.LVL5:
.LBB353:
.LBB354:
	.loc 2 100 0
/* #APP */
 ;  100 "/home/user/Osek/Test-LDR/erika/src/ee_hal_internal.h" 1
	cli
 ;  0 "" 2
.LVL6:
/* #NOAPP */
.LBE354:
.LBE353:
.LBE352:
.LBE351:
	.loc 1 117 0
	std Z+13,r24
	.loc 1 118 0
	ldd r24,Z+15
.L13:
.LBE350:
	.loc 1 120 0
	subi r24,lo8(-(1))
	std Z+15,r24
.LVL7:
	.loc 1 125 0
	rjmp .L7
.LVL8:
.L8:
	.loc 1 119 0
	cpi r24,lo8(-1)
	brne .L13
.L7:
/* epilogue start */
	.loc 1 126 0
	ret
	.cfi_endproc
.LFE61:
	.size	SuspendAllInterrupts, .-SuspendAllInterrupts
	.section	.text.ResumeAllInterrupts,"ax",@progbits
.global	ResumeAllInterrupts
	.type	ResumeAllInterrupts, @function
ResumeAllInterrupts:
.LFB62:
	.loc 1 133 0
	.cfi_startproc
/* prologue: function */
/* frame size = 0 */
/* stack size = 0 */
.L__stack_usage = 0
	.loc 1 135 0
	lds r30,CDB
	lds r31,CDB+1
.LVL9:
	.loc 1 139 0
	ldd r24,Z+15
	tst r24
	breq .L14
	.loc 1 140 0
	subi r24,lo8(-(-1))
	std Z+15,r24
	cpse r24,__zero_reg__
	rjmp .L14
	.loc 1 141 0
	ldd r24,Z+13
.LVL10:
.LBB355:
.LBB356:
	.loc 2 118 0
	.loc 2 119 0
	out __SREG__,r24
.LVL11:
.L14:
/* epilogue start */
.LBE356:
.LBE355:
	.loc 1 148 0
	ret
	.cfi_endproc
.LFE62:
	.size	ResumeAllInterrupts, .-ResumeAllInterrupts
	.section	.text.SuspendOSInterrupts,"ax",@progbits
.global	SuspendOSInterrupts
	.type	SuspendOSInterrupts, @function
SuspendOSInterrupts:
.LFB63:
	.loc 1 155 0
	.cfi_startproc
/* prologue: function */
/* frame size = 0 */
/* stack size = 0 */
.L__stack_usage = 0
	.loc 1 157 0
	lds r30,CDB
	lds r31,CDB+1
.LVL12:
	.loc 1 161 0
	ldd r24,Z+16
	cpse r24,__zero_reg__
	rjmp .L19
.LBB357:
.LBB358:
.LBB359:
.LBB360:
	.loc 2 111 0
	in r24,__SREG__
.LVL13:
.LBB361:
.LBB362:
	.loc 2 100 0
/* #APP */
 ;  100 "/home/user/Osek/Test-LDR/erika/src/ee_hal_internal.h" 1
	cli
 ;  0 "" 2
.LVL14:
/* #NOAPP */
.LBE362:
.LBE361:
.LBE360:
.LBE359:
.LBE358:
	.loc 1 163 0
	std Z+14,r24
	.loc 1 164 0
	ldd r24,Z+16
.L24:
.LBE357:
	.loc 1 166 0
	subi r24,lo8(-(1))
	std Z+16,r24
.LVL15:
	.loc 1 171 0
	rjmp .L18
.LVL16:
.L19:
	.loc 1 165 0
	cpi r24,lo8(-1)
	brne .L24
.L18:
/* epilogue start */
	.loc 1 172 0
	ret
	.cfi_endproc
.LFE63:
	.size	SuspendOSInterrupts, .-SuspendOSInterrupts
	.section	.text.ResumeOSInterrupts,"ax",@progbits
.global	ResumeOSInterrupts
	.type	ResumeOSInterrupts, @function
ResumeOSInterrupts:
.LFB64:
	.loc 1 179 0
	.cfi_startproc
/* prologue: function */
/* frame size = 0 */
/* stack size = 0 */
.L__stack_usage = 0
	.loc 1 181 0
	lds r30,CDB
	lds r31,CDB+1
.LVL17:
	.loc 1 185 0
	ldd r24,Z+16
	tst r24
	breq .L25
	.loc 1 186 0
	subi r24,lo8(-(-1))
	std Z+16,r24
	cpse r24,__zero_reg__
	rjmp .L25
	.loc 1 187 0
	ldd r24,Z+14
.LVL18:
.LBB363:
.LBB364:
.LBB365:
	.loc 2 118 0
	.loc 2 119 0
	out __SREG__,r24
.LVL19:
.L25:
/* epilogue start */
.LBE365:
.LBE364:
.LBE363:
	.loc 1 194 0
	ret
	.cfi_endproc
.LFE64:
	.size	ResumeOSInterrupts, .-ResumeOSInterrupts
	.section	.text.StartOS,"ax",@progbits
.global	StartOS
	.type	StartOS, @function
StartOS:
.LFB65:
	.loc 1 201 0
	.cfi_startproc
.LVL20:
	push r4
.LCFI0:
	.cfi_def_cfa_offset 3
	.cfi_offset 4, -2
	push r5
.LCFI1:
	.cfi_def_cfa_offset 4
	.cfi_offset 5, -3
	push r6
.LCFI2:
	.cfi_def_cfa_offset 5
	.cfi_offset 6, -4
	push r7
.LCFI3:
	.cfi_def_cfa_offset 6
	.cfi_offset 7, -5
	push r8
.LCFI4:
	.cfi_def_cfa_offset 7
	.cfi_offset 8, -6
	push r9
.LCFI5:
	.cfi_def_cfa_offset 8
	.cfi_offset 9, -7
	push r10
.LCFI6:
	.cfi_def_cfa_offset 9
	.cfi_offset 10, -8
	push r11
.LCFI7:
	.cfi_def_cfa_offset 10
	.cfi_offset 11, -9
	push r12
.LCFI8:
	.cfi_def_cfa_offset 11
	.cfi_offset 12, -10
	push r13
.LCFI9:
	.cfi_def_cfa_offset 12
	.cfi_offset 13, -11
	push r14
.LCFI10:
	.cfi_def_cfa_offset 13
	.cfi_offset 14, -12
	push r15
.LCFI11:
	.cfi_def_cfa_offset 14
	.cfi_offset 15, -13
	push r16
.LCFI12:
	.cfi_def_cfa_offset 15
	.cfi_offset 16, -14
	push r17
.LCFI13:
	.cfi_def_cfa_offset 16
	.cfi_offset 17, -15
	push r28
.LCFI14:
	.cfi_def_cfa_offset 17
	.cfi_offset 28, -16
	push r29
.LCFI15:
	.cfi_def_cfa_offset 18
	.cfi_offset 29, -17
	rcall .
.LCFI16:
	.cfi_def_cfa_offset 20
	in r28,__SP_L__
	in r29,__SP_H__
.LCFI17:
	.cfi_def_cfa_register 28
/* prologue: function */
/* frame size = 2 */
/* stack size = 18 */
.L__stack_usage = 18
	.loc 1 204 0
	lds r16,CDB
	lds r17,CDB+1
.LVL21:
.LBB389:
.LBB390:
.LBB391:
.LBB392:
	.loc 2 111 0
	in r25,__SREG__
.LVL22:
.LBB393:
.LBB394:
	.loc 2 100 0
/* #APP */
 ;  100 "/home/user/Osek/Test-LDR/erika/src/ee_hal_internal.h" 1
	cli
 ;  0 "" 2
.LVL23:
/* #NOAPP */
.LBE394:
.LBE393:
.LBE392:
.LBE391:
.LBE390:
.LBE389:
	.loc 1 211 0
	movw r26,r16
	adiw r26,8
	ld r18,X+
	ld r19,X
	or r18,r19
	breq .+2
	rjmp .L30
	mov r8,r24
.LBB395:
.LBB396:
	.loc 2 168 0
	ldi r24,lo8(gs(osEE_atmega_intvect))
	ldi r25,hi8(gs(osEE_atmega_intvect))
.LVL24:
	std Y+2,r25
	std Y+1,r24
	.loc 2 172 0
	call osEE_avr8_system_timer_init
.LVL25:
.LBE396:
.LBE395:
.LBB397:
	.loc 1 215 0
	lds r10,CDB+4
	lds r11,CDB+4+1
.LVL26:
	.loc 1 235 0
	ldi r24,lo8(1)
	ldi r25,0
	movw r30,r16
	std Z+9,r25
	std Z+8,r24
	.loc 1 236 0
	std Z+10,r8
.LVL27:
.LBB398:
	.loc 1 244 0
	lds r14,CDB+12
	lds r15,CDB+12+1
.LVL28:
	.loc 1 248 0
	mov r13,__zero_reg__
	mov r12,__zero_reg__
	ldi r31,lo8(4)
	mul r8,r31
	movw r8,r0
	clr __zero_reg__
.LVL29:
	add r14,r8
	adc r15,r9
	movw r6,r14
	ldi r24,2
	add r6,r24
	adc r7,__zero_reg__
.LBB399:
	.loc 1 252 0
	ldi r20,lo8(6)
	mov r5,r20
.LVL30:
.L31:
.LBE399:
	.loc 1 248 0 discriminator 1
	movw r30,r6
	ld r24,Z
	ldd r25,Z+1
	cp r12,r24
	cpc r13,r25
	brlo .L32
.LVL31:
.LBE398:
.LBB401:
	.loc 1 271 0
	lds r14,CDB+8
	lds r15,CDB+8+1
.LVL32:
	.loc 1 274 0
	movw r6,r16
	ldi r31,2
	add r6,r31
	adc r7,__zero_reg__
.LVL33:
	.loc 1 288 0
	mov r13,__zero_reg__
	mov r12,__zero_reg__
.LVL34:
	add r14,r8
	adc r15,r9
	movw r4,r14
	ldi r24,2
	add r4,r24
	adc r5,__zero_reg__
.LBB402:
	.loc 1 296 0
	clr r8
	inc r8
	mov r9,__zero_reg__
.LVL35:
.L33:
.LBE402:
	.loc 1 288 0 discriminator 1
	movw r30,r4
	ld r24,Z
	ldd r25,Z+1
	cp r12,r24
	cpc r13,r25
	brlo .L34
.LVL36:
.LBE401:
	.loc 1 311 0
	movw r26,r16
	adiw r26,8
	ld r24,X+
	ld r25,X
	sbiw r26,8+1
	sbiw r24,1
	brne .L35
	.loc 1 312 0
	ldi r24,lo8(2)
	ldi r25,0
	adiw r26,8+1
	st X,r25
	st -X,r24
	sbiw r26,8
.L35:
.LVL37:
	.loc 1 320 0
	movw r30,r16
	ldd r24,Z+8
	ldd r25,Z+9
	sbiw r24,2
	brne .L36
.LVL38:
.LBB406:
.LBB407:
	.file 3 "/home/user/Osek/Test-LDR/erika/src/ee_std_change_context.h"
	.loc 3 145 0
	movw r26,r10
	adiw r26,2
	ld r22,X+
	ld r23,X
	movw r20,r22
	movw r24,r10
	call osEE_hal_save_ctx_and_ready2stacked
.LVL39:
.L36:
.LBE407:
.LBE406:
	.loc 1 345 0
	movw r30,r16
	ldd r24,Z+8
	ldd r25,Z+9
	sbiw r24,2
	brne .L38
.LVL40:
.LBB408:
.LBB409:
	.loc 2 105 0
/* #APP */
 ;  105 "/home/user/Osek/Test-LDR/erika/src/ee_hal_internal.h" 1
	sei
 ;  0 "" 2
.LVL41:
/* #NOAPP */
.L38:
.LBE409:
.LBE408:
	.loc 1 343 0
	ldi r25,0
	ldi r24,0
.LBE397:
	.loc 1 369 0
	rjmp .L29
.LVL42:
.L32:
.LBB412:
.LBB410:
.LBB400:
	.loc 1 250 0 discriminator 3
	movw r26,r14
	ld r30,X+
	ld r31,X
.LVL43:
	.loc 1 252 0 discriminator 3
	mul r5,r12
	movw r24,r0
	mul r5,r13
	add r25,r0
	clr __zero_reg__
	add r30,r24
	adc r31,r25
.LVL44:
	ld r26,Z
	ldd r27,Z+1
.LVL45:
	.loc 1 255 0 discriminator 3
	ldd r18,Z+4
	ldd r19,Z+5
	ldd r20,Z+2
	ldd r21,Z+3
	movw r22,r26
	adiw r26,2
	ld r24,X+
	ld r25,X
	call osEE_alarm_set_rel
.LVL46:
.LBE400:
	.loc 1 248 0 discriminator 3
	ldi r27,-1
	sub r12,r27
	sbc r13,r27
.LVL47:
	rjmp .L31
.LVL48:
.L34:
.LBE410:
.LBB411:
.LBB405:
	.loc 1 290 0 discriminator 3
	movw r26,r14
	ld r30,X+
	ld r31,X
	movw r24,r12
	lsl r24
	rol r25
	add r30,r24
	adc r31,r25
	ld r20,Z
	ldd r21,Z+1
.LVL49:
	.loc 1 292 0 discriminator 3
	movw r26,r20
	adiw r26,4
	ld r30,X+
	ld r31,X
.LVL50:
	.loc 1 295 0 discriminator 3
	ld r24,Z
	subi r24,lo8(-(1))
	st Z,r24
	.loc 1 296 0 discriminator 3
	std Z+3,r9
	std Z+2,r8
.LVL51:
.LBB403:
.LBB404:
	.file 4 "/home/user/Osek/Test-LDR/erika/inc/ee_scheduler_types.h"
	.loc 4 82 0 discriminator 3
	movw r30,r16
.LVL52:
	ldd r22,Z+4
	ldd r23,Z+5
.LVL53:
	.loc 4 83 0 discriminator 3
	movw r26,r22
	ld r24,X+
	ld r25,X
	sbiw r26,1
	std Z+5,r25
	std Z+4,r24
	.loc 4 84 0 discriminator 3
	st X+,__zero_reg__
	st X,__zero_reg__
.LVL54:
.LBE404:
.LBE403:
	.loc 1 298 0 discriminator 3
	movw r24,r6
	call osEE_scheduler_rq_insert
.LVL55:
.LBE405:
	.loc 1 288 0 discriminator 3
	ldi r27,-1
	sub r12,r27
	sbc r13,r27
.LVL56:
	rjmp .L33
.LVL57:
.L30:
.LBE411:
.LBE412:
.LBB413:
.LBB414:
.LBB415:
.LBB416:
	.loc 2 118 0
	.loc 2 119 0
	out __SREG__,r25
.LVL58:
.LBE416:
.LBE415:
.LBE414:
.LBE413:
	.loc 1 359 0
	ldi r24,lo8(1)
	ldi r25,0
.LVL59:
.L29:
/* epilogue start */
	.loc 1 370 0
	pop __tmp_reg__
	pop __tmp_reg__
	pop r29
	pop r28
	pop r17
	pop r16
	pop r15
	pop r14
	pop r13
	pop r12
	pop r11
	pop r10
	pop r9
	pop r8
	pop r7
	pop r6
	pop r5
	pop r4
	ret
	.cfi_endproc
.LFE65:
	.size	StartOS, .-StartOS
	.section	.text.GetActiveApplicationMode,"ax",@progbits
.global	GetActiveApplicationMode
	.type	GetActiveApplicationMode, @function
GetActiveApplicationMode:
.LFB66:
	.loc 1 377 0
	.cfi_startproc
/* prologue: function */
/* frame size = 0 */
/* stack size = 0 */
.L__stack_usage = 0
	.loc 1 380 0
	lds r30,CDB
	lds r31,CDB+1
.LVL60:
	.loc 1 384 0
	ldd r24,Z+8
	ldd r25,Z+9
	or r24,r25
	breq .L41
	.loc 1 385 0
	ldd r24,Z+10
.LVL61:
	ret
.LVL62:
.L41:
	.loc 1 387 0
	ldi r24,lo8(-1)
.LVL63:
/* epilogue start */
	.loc 1 393 0
	ret
	.cfi_endproc
.LFE66:
	.size	GetActiveApplicationMode, .-GetActiveApplicationMode
	.section	.text.ActivateTask,"ax",@progbits
.global	ActivateTask
	.type	ActivateTask, @function
ActivateTask:
.LFB67:
	.loc 1 400 0
	.cfi_startproc
.LVL64:
	push r28
.LCFI18:
	.cfi_def_cfa_offset 3
	.cfi_offset 28, -2
/* prologue: function */
/* frame size = 0 */
/* stack size = 1 */
.L__stack_usage = 1
.LVL65:
.LBB417:
.LBB418:
	.file 5 "/home/user/Osek/Test-LDR/erika/src/ee_kernel.h"
	.loc 5 215 0
	ldi r25,0
.LBE418:
.LBE417:
	.loc 1 409 0
	lds r18,KDB+6
	lds r19,KDB+6+1
	cp r24,r18
	cpc r25,r19
	brsh .L45
.LBB419:
	.loc 1 414 0
	lds r18,KDB+2
	lds r19,KDB+2+1
	lsl r24
	rol r25
.LVL66:
	add r24,r18
	adc r25,r19
	movw r30,r24
	ld r20,Z
	ldd r21,Z+1
.LVL67:
	.loc 1 418 0
	movw r30,r20
	ldd r24,Z+7
	ldd r25,Z+8
	sbiw r24,2
	brsh .L45
.LBB420:
.LBB421:
.LBB422:
.LBB423:
.LBB424:
	.loc 2 111 0
	in r28,__SREG__
.LVL68:
.LBB425:
.LBB426:
	.loc 2 100 0
/* #APP */
 ;  100 "/home/user/Osek/Test-LDR/erika/src/ee_hal_internal.h" 1
	cli
 ;  0 "" 2
.LVL69:
/* #NOAPP */
.LBE426:
.LBE425:
.LBE424:
.LBE423:
.LBE422:
.LBE421:
	.loc 1 421 0
	ldi r18,lo8(1)
	ldi r19,0
	ldi r22,lo8(CDB)
	ldi r23,hi8(CDB)
	ldi r24,lo8(KDB)
	ldi r25,hi8(KDB)
	call osEE_scheduler_task_activated
.LVL70:
.LBB427:
.LBB428:
.LBB429:
.LBB430:
	.loc 2 118 0
	.loc 2 119 0
	out __SREG__,r28
.LVL71:
.L42:
/* epilogue start */
.LBE430:
.LBE429:
.LBE428:
.LBE427:
.LBE420:
.LBE419:
	.loc 1 451 0
	pop r28
	ret
.L45:
	.loc 1 410 0
	ldi r24,lo8(3)
	ldi r25,0
.LVL72:
	.loc 1 450 0
	rjmp .L42
	.cfi_endproc
.LFE67:
	.size	ActivateTask, .-ActivateTask
	.section	.text.ChainTask,"ax",@progbits
.global	ChainTask
	.type	ChainTask, @function
ChainTask:
.LFB68:
	.loc 1 459 0
	.cfi_startproc
.LVL73:
	push r17
.LCFI19:
	.cfi_def_cfa_offset 3
	.cfi_offset 17, -2
	push r28
.LCFI20:
	.cfi_def_cfa_offset 4
	.cfi_offset 28, -3
	push r29
.LCFI21:
	.cfi_def_cfa_offset 5
	.cfi_offset 29, -4
/* prologue: function */
/* frame size = 0 */
/* stack size = 3 */
.L__stack_usage = 3
.LVL74:
.LBB431:
.LBB432:
	.loc 5 215 0
	ldi r25,0
.LBE432:
.LBE431:
	.loc 1 468 0
	lds r18,KDB+6
	lds r19,KDB+6+1
	cp r24,r18
	cpc r25,r19
	brsh .L52
.LBB433:
	.loc 1 472 0
	lds r18,KDB+2
	lds r19,KDB+2+1
	lsl r24
	rol r25
.LVL75:
	add r24,r18
	adc r25,r19
	movw r30,r24
	ld r20,Z
	ldd r21,Z+1
.LVL76:
	.loc 1 498 0
	movw r30,r20
	ldd r24,Z+7
	ldd r25,Z+8
	sbiw r24,2
	brsh .L52
.LBB434:
.LBB435:
	.loc 5 92 0
	lds r28,CDB
	lds r29,CDB+1
	ld r30,Y
	ldd r31,Y+1
.LBE435:
.LBE434:
.LBB436:
.LBB437:
.LBB438:
.LBB439:
.LBB440:
	.loc 2 111 0
	in r17,__SREG__
.LVL77:
.LBB441:
.LBB442:
	.loc 2 100 0
/* #APP */
 ;  100 "/home/user/Osek/Test-LDR/erika/src/ee_hal_internal.h" 1
	cli
 ;  0 "" 2
.LVL78:
/* #NOAPP */
.LBE442:
.LBE441:
.LBE440:
.LBE439:
.LBE438:
.LBE437:
	.loc 1 501 0
	cp r30,r20
	cpc r31,r21
	brne .L48
	.loc 1 503 0
	ldd __tmp_reg__,Z+4
	ldd r31,Z+5
	mov r30,__tmp_reg__
	ldi r24,lo8(5)
	ldi r25,0
	std Z+3,r25
	std Z+2,r24
.LVL79:
.L49:
.LBB443:
.LBB444:
	.loc 3 136 0
	ld r30,Y
	ldd r31,Y+1
	ldi r22,lo8(gs(osEE_scheduler_task_end))
	ldi r23,hi8(gs(osEE_scheduler_task_end))
	ldd r24,Z+2
	ldd r25,Z+3
	call osEE_hal_terminate_ctx
.LVL80:
.L48:
.LBE444:
.LBE443:
	.loc 1 506 0
	ldi r19,0
	ldi r18,0
	ldi r22,lo8(CDB)
	ldi r23,hi8(CDB)
	ldi r24,lo8(KDB)
	ldi r25,hi8(KDB)
	call osEE_scheduler_task_activated
.LVL81:
	.loc 1 508 0
	sbiw r24,0
	breq .L49
.LVL82:
.LBB445:
.LBB446:
.LBB447:
.LBB448:
	.loc 2 118 0
	.loc 2 119 0
	out __SREG__,r17
.LVL83:
.L46:
/* epilogue start */
.LBE448:
.LBE447:
.LBE446:
.LBE445:
.LBE436:
.LBE433:
	.loc 1 541 0
	pop r29
	pop r28
	pop r17
	ret
.L52:
	.loc 1 469 0
	ldi r24,lo8(3)
	ldi r25,0
.LVL84:
	.loc 1 540 0
	rjmp .L46
	.cfi_endproc
.LFE68:
	.size	ChainTask, .-ChainTask
	.section	.text.TerminateTask,"ax",@progbits
.global	TerminateTask
	.type	TerminateTask, @function
TerminateTask:
.LFB69:
	.loc 1 548 0
	.cfi_startproc
/* prologue: function */
/* frame size = 0 */
/* stack size = 0 */
.L__stack_usage = 0
.LVL85:
	.loc 1 555 0
	lds r30,CDB
	lds r31,CDB+1
	ld __tmp_reg__,Z+
	ld r31,Z
	mov r30,__tmp_reg__
.LVL86:
.LBB449:
.LBB450:
.LBB451:
.LBB452:
.LBB453:
	.loc 2 111 0
	in r24,__SREG__
.LBB454:
.LBB455:
	.loc 2 100 0
/* #APP */
 ;  100 "/home/user/Osek/Test-LDR/erika/src/ee_hal_internal.h" 1
	cli
 ;  0 "" 2
.LVL87:
/* #NOAPP */
.LBE455:
.LBE454:
.LBE453:
.LBE452:
.LBE451:
.LBE450:
.LBB456:
.LBB457:
	.loc 3 136 0
	ldi r22,lo8(gs(osEE_scheduler_task_end))
	ldi r23,hi8(gs(osEE_scheduler_task_end))
	ldd r24,Z+2
	ldd r25,Z+3
	call osEE_hal_terminate_ctx
.LVL88:
.LBE457:
.LBE456:
.LBE449:
	.cfi_endproc
.LFE69:
	.size	TerminateTask, .-TerminateTask
	.section	.text.Schedule,"ax",@progbits
.global	Schedule
	.type	Schedule, @function
Schedule:
.LFB70:
	.loc 1 632 0
	.cfi_startproc
	push r15
.LCFI22:
	.cfi_def_cfa_offset 3
	.cfi_offset 15, -2
	push r16
.LCFI23:
	.cfi_def_cfa_offset 4
	.cfi_offset 16, -3
	push r17
.LCFI24:
	.cfi_def_cfa_offset 5
	.cfi_offset 17, -4
	push r28
.LCFI25:
	.cfi_def_cfa_offset 6
	.cfi_offset 28, -5
	push r29
.LCFI26:
	.cfi_def_cfa_offset 7
	.cfi_offset 29, -6
/* prologue: function */
/* frame size = 0 */
/* stack size = 5 */
.L__stack_usage = 5
.LVL89:
	.loc 1 636 0
	lds r30,CDB
	lds r31,CDB+1
	ld r28,Z
	ldd r29,Z+1
.LVL90:
	.loc 1 637 0
	ldd r16,Y+4
	ldd r17,Y+5
.LVL91:
	.loc 1 651 0
	movw r30,r16
	ldd r25,Z+1
	ldd r24,Y+12
	cpse r25,r24
	rjmp .L55
.LBB458:
.LBB459:
.LBB460:
.LBB461:
.LBB462:
	.loc 2 111 0
	in r15,__SREG__
.LVL92:
.LBB463:
.LBB464:
	.loc 2 100 0
/* #APP */
 ;  100 "/home/user/Osek/Test-LDR/erika/src/ee_hal_internal.h" 1
	cli
 ;  0 "" 2
.LVL93:
/* #NOAPP */
.LBE464:
.LBE463:
.LBE462:
.LBE461:
.LBE460:
.LBE459:
	.loc 1 657 0
	ldd r24,Y+11
	std Z+1,r24
	.loc 1 659 0
	ldi r22,lo8(CDB)
	ldi r23,hi8(CDB)
.LVL94:
	ldi r24,lo8(KDB)
	ldi r25,hi8(KDB)
	call osEE_scheduler_task_preemption_point
.LVL95:
	.loc 1 661 0
	ldd r24,Y+12
	movw r30,r16
	std Z+1,r24
.LBB465:
.LBB466:
.LBB467:
.LBB468:
	.loc 2 118 0
	.loc 2 119 0
	out __SREG__,r15
.LVL96:
.L55:
.LBE468:
.LBE467:
.LBE466:
.LBE465:
.LBE458:
	.loc 1 685 0
	ldi r25,0
	ldi r24,0
/* epilogue start */
	pop r29
	pop r28
.LVL97:
	pop r17
	pop r16
.LVL98:
	pop r15
	ret
	.cfi_endproc
.LFE70:
	.size	Schedule, .-Schedule
	.section	.text.ShutdownOS,"ax",@progbits
.global	ShutdownOS
	.type	ShutdownOS, @function
ShutdownOS:
.LFB71:
	.loc 1 867 0
	.cfi_startproc
.LVL99:
/* prologue: function */
/* frame size = 0 */
/* stack size = 0 */
.L__stack_usage = 0
	movw r20,r24
	.loc 1 870 0
	lds r30,CDB
	lds r31,CDB+1
.LVL100:
.LBB469:
.LBB470:
.LBB471:
.LBB472:
	.loc 2 111 0
	in r25,__SREG__
.LVL101:
.LBB473:
.LBB474:
	.loc 2 100 0
/* #APP */
 ;  100 "/home/user/Osek/Test-LDR/erika/src/ee_hal_internal.h" 1
	cli
 ;  0 "" 2
.LVL102:
/* #NOAPP */
.LBE474:
.LBE473:
.LBE472:
.LBE471:
.LBE470:
.LBE469:
	.loc 1 876 0
	ldd r18,Z+8
	ldd r19,Z+9
	subi r18,1
	sbc r19,__zero_reg__
	cpi r18,2
	cpc r19,__zero_reg__
	brsh .L57
	.loc 1 878 0
	ldi r24,lo8(3)
	ldi r25,0
.LVL103:
	std Z+9,r25
	std Z+8,r24
.LVL104:
	.loc 1 880 0
	std Z+12,r21
	std Z+11,r20
.LBB475:
.LBB476:
	.loc 2 100 0
/* #APP */
 ;  100 "/home/user/Osek/Test-LDR/erika/src/ee_hal_internal.h" 1
	cli
 ;  0 "" 2
/* #NOAPP */
.L58:
	rjmp .L58
.LVL105:
.L57:
.LBE476:
.LBE475:
.LBB477:
.LBB478:
.LBB479:
.LBB480:
	.loc 2 118 0
	.loc 2 119 0
	out __SREG__,r25
.LVL106:
.LBE480:
.LBE479:
.LBE478:
.LBE477:
	.loc 1 906 0
	ldi r24,lo8(7)
	ldi r25,0
/* epilogue start */
	ret
	.cfi_endproc
.LFE71:
	.size	ShutdownOS, .-ShutdownOS
	.section	.text.GetTaskID,"ax",@progbits
.global	GetTaskID
	.type	GetTaskID, @function
GetTaskID:
.LFB72:
	.loc 1 913 0
	.cfi_startproc
.LVL107:
	push r28
.LCFI27:
	.cfi_def_cfa_offset 3
	.cfi_offset 28, -2
	push r29
.LCFI28:
	.cfi_def_cfa_offset 4
	.cfi_offset 29, -3
/* prologue: function */
/* frame size = 0 */
/* stack size = 2 */
.L__stack_usage = 2
	movw r26,r24
	.loc 1 927 0
	ldi r24,lo8(14)
	ldi r25,0
.LVL108:
	.loc 1 926 0
	sbiw r26,0
	breq .L59
.LVL109:
.LBB481:
.LBB482:
.LBB483:
	.loc 5 92 0
	lds r30,CDB
	lds r31,CDB+1
	ld r28,Z
	ldd r29,Z+1
.LBE483:
.LBE482:
	.loc 1 934 0
	ldd r24,Y+7
	ldd r25,Y+8
	cpi r24,2
	cpc r25,__zero_reg__
	brsh .L61
.L68:
.LBB484:
.LBB485:
	.loc 1 947 0
	ldd r25,Y+6
.LVL110:
.L62:
.LBE485:
.LBE484:
	.loc 1 955 0
	st X,r25
.LVL111:
	.loc 1 956 0
	ldi r25,0
.LVL112:
	ldi r24,0
.LVL113:
.L59:
/* epilogue start */
.LBE481:
	.loc 1 981 0
	pop r29
	pop r28
	ret
.LVL114:
.L61:
.LBB490:
	.loc 1 936 0
	sbiw r24,2
	brne .L67
.LVL115:
.LBB488:
	.loc 1 941 0
	ldd __tmp_reg__,Z+6
	ldd r31,Z+7
	mov r30,__tmp_reg__
.LVL116:
.L64:
.LBB486:
	.loc 1 950 0
	ld __tmp_reg__,Z+
	ld r31,Z
	mov r30,__tmp_reg__
.LVL117:
.LBE486:
	.loc 1 943 0
	sbiw r30,0
	brne .L65
.LVL118:
.L67:
.LBE488:
	.loc 1 930 0
	ldi r25,lo8(-1)
	rjmp .L62
.LVL119:
.L65:
.LBB489:
.LBB487:
	.loc 1 945 0
	ldd r28,Z+2
	ldd r29,Z+3
.LVL120:
	.loc 1 946 0
	ldd r24,Y+7
	ldd r25,Y+8
	sbiw r24,2
	brsh .L64
	rjmp .L68
.LBE487:
.LBE489:
.LBE490:
	.cfi_endproc
.LFE72:
	.size	GetTaskID, .-GetTaskID
	.section	.text.GetTaskState,"ax",@progbits
.global	GetTaskState
	.type	GetTaskState, @function
GetTaskState:
.LFB73:
	.loc 1 989 0
	.cfi_startproc
.LVL121:
	push r28
.LCFI29:
	.cfi_def_cfa_offset 3
	.cfi_offset 28, -2
	push r29
.LCFI30:
	.cfi_def_cfa_offset 4
	.cfi_offset 29, -3
/* prologue: function */
/* frame size = 0 */
/* stack size = 2 */
.L__stack_usage = 2
	movw r30,r22
	.loc 1 1003 0
	sbiw r30,0
	breq .L76
.LVL122:
.LBB491:
.LBB492:
	.loc 5 215 0
	ldi r25,0
.LBE492:
.LBE491:
	.loc 1 1006 0
	lds r18,KDB+6
	lds r19,KDB+6+1
	cp r24,r18
	cpc r25,r19
	brsh .L77
.LVL123:
.LBB493:
	.loc 1 1011 0
	lds r18,KDB+2
	lds r19,KDB+2+1
	lsl r24
	rol r25
.LVL124:
	add r24,r18
	adc r25,r19
	.loc 1 1014 0
	movw r28,r24
	ld r26,Y
	ldd r27,Y+1
	adiw r26,4
	ld __tmp_reg__,X+
	ld r27,X
	mov r26,__tmp_reg__
	.loc 1 1015 0
	adiw r26,2
	ld r24,X+
	ld r25,X
	clr r25
	cpi r24,3
	cpc r25,__zero_reg__
	brsh .L71
	sbiw r24,1
	brlo .L79
	.loc 1 1021 0
	ldi r24,lo8(1)
	ldi r25,0
.L81:
	.loc 1 1028 0
	std Z+1,r25
	st Z,r24
	rjmp .L78
.L71:
	.loc 1 1015 0
	cpi r24,3
	cpc r25,__zero_reg__
	breq .L81
	sbiw r24,6
	brlo .L80
.L78:
	.loc 1 1034 0
	ldi r25,0
	ldi r24,0
.LVL125:
.LBE493:
	.loc 1 1060 0
	rjmp .L69
.LVL126:
.L79:
.LBB494:
	.loc 1 1017 0
	std Z+1,__zero_reg__
	st Z,__zero_reg__
	rjmp .L78
.L80:
	.loc 1 1028 0
	ldi r24,lo8(4)
	ldi r25,0
	rjmp .L81
.LVL127:
.L76:
.LBE494:
	.loc 1 1004 0
	ldi r24,lo8(14)
	ldi r25,0
.LVL128:
.L69:
/* epilogue start */
	.loc 1 1061 0
	pop r29
	pop r28
	ret
.LVL129:
.L77:
	.loc 1 1007 0
	ldi r24,lo8(3)
	ldi r25,0
.LVL130:
	rjmp .L69
	.cfi_endproc
.LFE73:
	.size	GetTaskState, .-GetTaskState
	.section	.text.SetRelAlarm,"ax",@progbits
.global	SetRelAlarm
	.type	SetRelAlarm, @function
SetRelAlarm:
.LFB74:
	.loc 1 1071 0
	.cfi_startproc
.LVL131:
	push r28
.LCFI31:
	.cfi_def_cfa_offset 3
	.cfi_offset 28, -2
/* prologue: function */
/* frame size = 0 */
/* stack size = 1 */
.L__stack_usage = 1
.LVL132:
.LBB495:
.LBB496:
	.loc 5 565 0
	ldi r25,0
.LBE496:
.LBE495:
	.loc 1 1081 0
	lds r18,KDB+16
	lds r19,KDB+16+1
	cp r24,r18
	cpc r25,r19
	brsh .L84
	movw r18,r20
	movw r20,r22
.LVL133:
.LBB497:
	.loc 1 1086 0
	lds r30,KDB+14
	lds r31,KDB+14+1
	lsl r24
	rol r25
.LVL134:
	add r30,r24
	adc r31,r25
	ld r22,Z
	ldd r23,Z+1
.LVL135:
	.loc 1 1088 0
	movw r30,r22
	ldd r24,Z+2
	ldd r25,Z+3
.LVL136:
.LBB498:
.LBB499:
.LBB500:
.LBB501:
.LBB502:
	.loc 2 111 0
	in r28,__SREG__
.LVL137:
.LBB503:
.LBB504:
	.loc 2 100 0
/* #APP */
 ;  100 "/home/user/Osek/Test-LDR/erika/src/ee_hal_internal.h" 1
	cli
 ;  0 "" 2
.LVL138:
/* #NOAPP */
.LBE504:
.LBE503:
.LBE502:
.LBE501:
.LBE500:
.LBE499:
	.loc 1 1105 0
	call osEE_alarm_set_rel
.LVL139:
.LBB505:
.LBB506:
.LBB507:
.LBB508:
	.loc 2 118 0
	.loc 2 119 0
	out __SREG__,r28
.LVL140:
.L82:
/* epilogue start */
.LBE508:
.LBE507:
.LBE506:
.LBE505:
.LBE498:
.LBE497:
	.loc 1 1137 0
	pop r28
	ret
.LVL141:
.L84:
	.loc 1 1082 0
	ldi r24,lo8(3)
	ldi r25,0
.LVL142:
	.loc 1 1136 0
	rjmp .L82
	.cfi_endproc
.LFE74:
	.size	SetRelAlarm, .-SetRelAlarm
	.section	.text.SetAbsAlarm,"ax",@progbits
.global	SetAbsAlarm
	.type	SetAbsAlarm, @function
SetAbsAlarm:
.LFB75:
	.loc 1 1146 0
	.cfi_startproc
.LVL143:
	push r28
.LCFI32:
	.cfi_def_cfa_offset 3
	.cfi_offset 28, -2
/* prologue: function */
/* frame size = 0 */
/* stack size = 1 */
.L__stack_usage = 1
.LVL144:
.LBB509:
.LBB510:
	.loc 5 565 0
	ldi r25,0
.LBE510:
.LBE509:
	.loc 1 1156 0
	lds r18,KDB+16
	lds r19,KDB+16+1
	cp r24,r18
	cpc r25,r19
	brsh .L87
	movw r18,r20
	movw r20,r22
.LVL145:
.LBB511:
	.loc 1 1161 0
	lds r30,KDB+14
	lds r31,KDB+14+1
	lsl r24
	rol r25
.LVL146:
	add r30,r24
	adc r31,r25
	ld r22,Z
	ldd r23,Z+1
.LVL147:
	.loc 1 1163 0
	movw r30,r22
	ldd r24,Z+2
	ldd r25,Z+3
.LVL148:
.LBB512:
.LBB513:
.LBB514:
.LBB515:
.LBB516:
	.loc 2 111 0
	in r28,__SREG__
.LVL149:
.LBB517:
.LBB518:
	.loc 2 100 0
/* #APP */
 ;  100 "/home/user/Osek/Test-LDR/erika/src/ee_hal_internal.h" 1
	cli
 ;  0 "" 2
.LVL150:
/* #NOAPP */
.LBE518:
.LBE517:
.LBE516:
.LBE515:
.LBE514:
.LBE513:
	.loc 1 1179 0
	call osEE_alarm_set_abs
.LVL151:
.LBB519:
.LBB520:
.LBB521:
.LBB522:
	.loc 2 118 0
	.loc 2 119 0
	out __SREG__,r28
.LVL152:
.L85:
/* epilogue start */
.LBE522:
.LBE521:
.LBE520:
.LBE519:
.LBE512:
.LBE511:
	.loc 1 1211 0
	pop r28
	ret
.LVL153:
.L87:
	.loc 1 1157 0
	ldi r24,lo8(3)
	ldi r25,0
.LVL154:
	.loc 1 1210 0
	rjmp .L85
	.cfi_endproc
.LFE75:
	.size	SetAbsAlarm, .-SetAbsAlarm
	.section	.text.CancelAlarm,"ax",@progbits
.global	CancelAlarm
	.type	CancelAlarm, @function
CancelAlarm:
.LFB76:
	.loc 1 1218 0
	.cfi_startproc
.LVL155:
	push r28
.LCFI33:
	.cfi_def_cfa_offset 3
	.cfi_offset 28, -2
/* prologue: function */
/* frame size = 0 */
/* stack size = 1 */
.L__stack_usage = 1
.LVL156:
.LBB523:
.LBB524:
	.loc 5 565 0
	ldi r25,0
.LBE524:
.LBE523:
	.loc 1 1228 0
	lds r18,KDB+16
	lds r19,KDB+16+1
	cp r24,r18
	cpc r25,r19
	brsh .L90
.LBB525:
	.loc 1 1232 0
	lds r18,KDB+14
	lds r19,KDB+14+1
	lsl r24
	rol r25
.LVL157:
	add r24,r18
	adc r25,r19
	movw r30,r24
	ld r24,Z
	ldd r25,Z+1
.LVL158:
.LBB526:
.LBB527:
.LBB528:
.LBB529:
	.loc 2 111 0
	in r28,__SREG__
.LVL159:
.LBB530:
.LBB531:
	.loc 2 100 0
/* #APP */
 ;  100 "/home/user/Osek/Test-LDR/erika/src/ee_hal_internal.h" 1
	cli
 ;  0 "" 2
.LVL160:
/* #NOAPP */
.LBE531:
.LBE530:
.LBE529:
.LBE528:
.LBE527:
.LBE526:
	.loc 1 1236 0
	call osEE_alarm_cancel
.LVL161:
.LBB532:
.LBB533:
.LBB534:
.LBB535:
	.loc 2 118 0
	.loc 2 119 0
	out __SREG__,r28
.LVL162:
.L88:
/* epilogue start */
.LBE535:
.LBE534:
.LBE533:
.LBE532:
.LBE525:
	.loc 1 1263 0
	pop r28
	ret
.LVL163:
.L90:
	.loc 1 1229 0
	ldi r24,lo8(3)
	ldi r25,0
.LVL164:
	.loc 1 1262 0
	rjmp .L88
	.cfi_endproc
.LFE76:
	.size	CancelAlarm, .-CancelAlarm
	.section	.text.GetAlarm,"ax",@progbits
.global	GetAlarm
	.type	GetAlarm, @function
GetAlarm:
.LFB77:
	.loc 1 1271 0
	.cfi_startproc
.LVL165:
	push r28
.LCFI34:
	.cfi_def_cfa_offset 3
	.cfi_offset 28, -2
/* prologue: function */
/* frame size = 0 */
/* stack size = 1 */
.L__stack_usage = 1
.LVL166:
.LBB536:
.LBB537:
	.loc 5 565 0
	ldi r25,0
.LBE537:
.LBE536:
	.loc 1 1281 0
	lds r18,KDB+16
	lds r19,KDB+16+1
	cp r24,r18
	cpc r25,r19
	brsh .L93
	.loc 1 1284 0
	cp r22,__zero_reg__
	cpc r23,__zero_reg__
	breq .L94
.LBB538:
	.loc 1 1289 0
	lds r18,KDB+14
	lds r19,KDB+14+1
	lsl r24
	rol r25
.LVL167:
	add r24,r18
	adc r25,r19
	movw r30,r24
	ld r24,Z
	ldd r25,Z+1
.LVL168:
.LBB539:
.LBB540:
.LBB541:
.LBB542:
	.loc 2 111 0
	in r28,__SREG__
.LVL169:
.LBB543:
.LBB544:
	.loc 2 100 0
/* #APP */
 ;  100 "/home/user/Osek/Test-LDR/erika/src/ee_hal_internal.h" 1
	cli
 ;  0 "" 2
.LVL170:
/* #NOAPP */
.LBE544:
.LBE543:
.LBE542:
.LBE541:
.LBE540:
.LBE539:
	.loc 1 1293 0
	call osEE_alarm_get
.LVL171:
.LBB545:
.LBB546:
.LBB547:
.LBB548:
	.loc 2 118 0
	.loc 2 119 0
	out __SREG__,r28
.LVL172:
.L91:
/* epilogue start */
.LBE548:
.LBE547:
.LBE546:
.LBE545:
.LBE538:
	.loc 1 1322 0
	pop r28
	ret
.LVL173:
.L93:
	.loc 1 1282 0
	ldi r24,lo8(3)
	ldi r25,0
.LVL174:
	rjmp .L91
.LVL175:
.L94:
	.loc 1 1285 0
	ldi r24,lo8(14)
	ldi r25,0
.LVL176:
	.loc 1 1321 0
	rjmp .L91
	.cfi_endproc
.LFE77:
	.size	GetAlarm, .-GetAlarm
	.section	.text.GetAlarmBase,"ax",@progbits
.global	GetAlarmBase
	.type	GetAlarmBase, @function
GetAlarmBase:
.LFB78:
	.loc 1 1330 0
	.cfi_startproc
.LVL177:
/* prologue: function */
/* frame size = 0 */
/* stack size = 0 */
.L__stack_usage = 0
.LBB549:
.LBB550:
	.loc 5 565 0
	ldi r25,0
.LBE550:
.LBE549:
	.loc 1 1340 0
	lds r18,KDB+16
	lds r19,KDB+16+1
	cp r24,r18
	cpc r25,r19
	brsh .L97
	.loc 1 1343 0
	cp r22,__zero_reg__
	cpc r23,__zero_reg__
	breq .L98
.LVL178:
.LBB551:
	.loc 1 1348 0
	lds r18,KDB+14
	lds r19,KDB+14+1
	lsl r24
	rol r25
.LVL179:
	add r24,r18
	adc r25,r19
	.loc 1 1352 0
	movw r26,r24
	ld r30,X+
	ld r31,X
	.loc 1 1354 0
	ldd __tmp_reg__,Z+2
	ldd r31,Z+3
	mov r30,__tmp_reg__
	ldd r24,Z+2
	ldd r25,Z+3
	ldd r26,Z+4
	ldd r27,Z+5
	movw r30,r22
	st Z,r24
	std Z+1,r25
	std Z+2,r26
	std Z+3,r27
.LVL180:
	.loc 1 1356 0
	ldi r25,0
	ldi r24,0
	ret
.LVL181:
.L97:
.LBE551:
	.loc 1 1341 0
	ldi r24,lo8(3)
	ldi r25,0
.LVL182:
	ret
.LVL183:
.L98:
	.loc 1 1344 0
	ldi r24,lo8(14)
	ldi r25,0
.LVL184:
/* epilogue start */
	.loc 1 1383 0
	ret
	.cfi_endproc
.LFE78:
	.size	GetAlarmBase, .-GetAlarmBase
	.section	.text.GetISRID,"ax",@progbits
.global	GetISRID
	.type	GetISRID, @function
GetISRID:
.LFB79:
	.loc 1 1844 0
	.cfi_startproc
/* prologue: function */
/* frame size = 0 */
/* stack size = 0 */
.L__stack_usage = 0
.LBB552:
.LBB553:
	.loc 5 92 0
	lds r30,CDB
	lds r31,CDB+1
	ld __tmp_reg__,Z+
	ld r31,Z
	mov r30,__tmp_reg__
.LBE553:
.LBE552:
	.loc 1 1849 0
	ldd r24,Z+7
	ldd r25,Z+8
	sbiw r24,2
	brne .L101
	.loc 1 1850 0
	ldd r24,Z+6
.LVL185:
	ret
.LVL186:
.L101:
	.loc 1 1852 0
	ldi r24,lo8(-1)
.LVL187:
/* epilogue start */
	.loc 1 1856 0
	ret
	.cfi_endproc
.LFE79:
	.size	GetISRID, .-GetISRID
	.text
.Letext0:
	.file 6 "/home/user/arduino-1.8.15/hardware/tools/avr/avr/include/stdint.h"
	.file 7 "/home/user/Osek/Test-LDR/erika/inc/ee_platform_types.h"
	.file 8 "/home/user/Osek/Test-LDR/erika/inc/ee_hal_internal_types.h"
	.file 9 "/home/user/Osek/Test-LDR/erika/inc/ee_api_types.h"
	.file 10 "/home/user/Osek/Test-LDR/erika/inc/ee_kernel_types.h"
	.file 11 "/home/user/Osek/Test-LDR/erika/inc/ee_get_kernel_and_core.h"
	.file 12 "/home/user/Osek/Test-LDR/erika/src/ee_scheduler.h"